
out/kernel.bin:     file format elf32-i386
out/kernel.bin
architecture: i386, flags 0x00000112:
EXEC_P, HAS_SYMS, D_PAGED
start address 0x0011e3d0

SYMBOL TABLE:
00100000 l    d  .data	00000000 .data
0010d420 l    d  .ctors	00000000 .ctors
0010d430 l    d  .dtors	00000000 .dtors
0010e000 l    d  .rodata	00000000 .rodata
0010e0e8 l    d  .rodata.str1.1	00000000 .rodata.str1.1
0010e808 l    d  .eh_frame	00000000 .eh_frame
0011bb6c l    d  .rodata.str1.4	00000000 .rodata.str1.4
0011bff0 l    d  .rodata._ZTVN6system4core2io4ttys7vbe_ttyE	00000000 .rodata._ZTVN6system4core2io4ttys7vbe_ttyE
0011c014 l    d  .rodata._ZTVN6system4core2io4ttys12terminal_ttyE	00000000 .rodata._ZTVN6system4core2io4ttys12terminal_ttyE
0011c038 l    d  .rodata._ZTVN6system4core2io4ttys9debug_ttyE	00000000 .rodata._ZTVN6system4core2io4ttys9debug_ttyE
0011c05c l    d  .rodata._ZTVN6system4core2io4ttys9error_ttyE	00000000 .rodata._ZTVN6system4core2io4ttys9error_ttyE
0011c080 l    d  .rodata._ZTVSt3tty	00000000 .rodata._ZTVSt3tty
0011c0a4 l    d  .rodata._ZTVN6system4core2io6layoutE	00000000 .rodata._ZTVN6system4core2io6layoutE
0011c0b0 l    d  .rodata._ZTVN6system4core2io7layouts7englishE	00000000 .rodata._ZTVN6system4core2io7layouts7englishE
0011c0bc l    d  .rodata._ZN6system4core2io4ttys12terminal_tty16register_commandESt11base_stringIcEPFvRSt9arraylistIS5_EE.str1.1	00000000 .rodata._ZN6system4core2io4ttys12terminal_tty16register_commandESt11base_stringIcEPFvRSt9arraylistIS5_EE.str1.1
0011d000 l    d  .bss	00000000 .bss
0011e000 l    d  .text	00000000 .text
0013dab0 l    d  .text.startup	00000000 .text.startup
0013dd20 l    d  .text.exit	00000000 .text.exit
0013de90 l    d  .text._ZN6system4core2io6layout4scanENS_3hal7drivers2kb10scancode_tERSt5arrayISt9special_tEb	00000000 .text._ZN6system4core2io6layout4scanENS_3hal7drivers2kb10scancode_tERSt5arrayISt9special_tEb
0013dea0 l    d  .text._ZNSt9arraylistISt5arrayISt5key_tEED2Ev	00000000 .text._ZNSt9arraylistISt5arrayISt5key_tEED2Ev
0013df10 l    d  .text._ZNSt9arraylistIPFvvEED2Ev	00000000 .text._ZNSt9arraylistIPFvvEED2Ev
0013df80 l    d  .text._ZNSt9arraylistISt11base_stringIcEED2Ev	00000000 .text._ZNSt9arraylistISt11base_stringIcEED2Ev
0013dff0 l    d  .text._ZNSt9arraylistIcED2Ev	00000000 .text._ZNSt9arraylistIcED2Ev
0013e060 l    d  .text._ZNSt9arraylistISt5key_tED2Ev	00000000 .text._ZNSt9arraylistISt5key_tED2Ev
0013e0d0 l    d  .text._ZNSt5arrayISt5key_tED2Ev	00000000 .text._ZNSt5arrayISt5key_tED2Ev
0013e130 l    d  .text._ZNSt11base_stringIcED2Ev	00000000 .text._ZNSt11base_stringIcED2Ev
0013e1e0 l    d  .text._ZN6system4core2io4ttys12terminal_tty16register_commandESt11base_stringIcEPFvRSt9arraylistIS5_EE	00000000 .text._ZN6system4core2io4ttys12terminal_tty16register_commandESt11base_stringIcEPFvRSt9arraylistIS5_EE
0013e9a0 l    d  .text._ZNSt9arraylistIPSt3ttyED2Ev	00000000 .text._ZNSt9arraylistIPSt3ttyED2Ev
0013ea10 l    d  .text._ZNSt9arraylistIPSt3ttyE3addES1_	00000000 .text._ZNSt9arraylistIPSt3ttyE3addES1_
0013eb40 l    d  .text._ZNSt11base_stringIcEC2EPcb	00000000 .text._ZNSt11base_stringIcEC2EPcb
0013efb0 l    d  .text._ZNSt5arrayISt5key_tE2atEi	00000000 .text._ZNSt5arrayISt5key_tE2atEi
00000000 l    d  .comment	00000000 .comment
00000000 l    df *ABS*	00000000 loader.cpp
0013dab0 l     F .text.startup	00000075 _GLOBAL__sub_I__ZN6system3env12current_heapE
0013dd20 l     F .text.exit	00000097 _GLOBAL__sub_D__ZN6system3env12current_heapE
00000000 l    df *ABS*	00000000 doublebuffer.cpp
00000000 l    df *ABS*	00000000 stdio.cpp
00000000 l    df *ABS*	00000000 out.cpp
0011e490 l     F .text	000001de _ZN6system4core2io3out6renderEv.part.3
0010e000 l     O .rodata	00000011 _ZZL6hexstrmPcbhE7hexvals
00000000 l    df *ABS*	00000000 vbe_tty.cpp
00000000 l    df *ABS*	00000000 terminal_tty.cpp
00000000 l    df *ABS*	00000000 debug_tty.cpp
00000000 l    df *ABS*	00000000 error_tty.cpp
00000000 l    df *ABS*	00000000 tty.cpp
0012cc00 l     F .text	000000ee _ZZNSt3tty13internal_initEvENUlvE_4_FUNEv
0012ccf0 l     F .text	000000ea _ZZNSt3tty13internal_initEvENUlvE0_4_FUNEv
0012cde0 l     F .text	000000f0 _ZZNSt3tty13internal_initEvENUlvE1_4_FUNEv
0012ced0 l     F .text	000000f0 _ZZNSt3tty13internal_initEvENUlvE2_4_FUNEv
0012cfc0 l     F .text	000000f0 _ZZNSt3tty13internal_initEvENUlvE3_4_FUNEv
0012d0b0 l     F .text	000001fc _ZZNSt3tty13internal_initEvENUlvE4_4_FUNEv
0012d2b0 l     F .text	000001cd _ZZNSt3tty13internal_initEvENUlvE5_4_FUNEv
0013db30 l     F .text.startup	00000104 _GLOBAL__sub_I__ZSt8ctty_num
0013ddc0 l     F .text.exit	00000059 _GLOBAL__sub_D__ZSt8ctty_num
00000000 l    df *ABS*	00000000 debug.cpp
0012e6e0 l     F .text	0000108d _ZNSt5dbgio11print_errorEPKc.part.2
0012d600 l     F .text	0000108d _ZNSt5dbgio11print_debugEPKc.part.1
0012f7a0 l     F .text	0000108d _ZNSt5dbgio10print_warnEPKc.part.4
00130860 l     F .text	0000108d _ZNSt5dbgio10print_infoEPKc.part.3
00000000 l    df *ABS*	00000000 english.cpp
00000000 l    df *ABS*	00000000 kernel.cpp
001329e0 l     F .text	00000002 __tcf_0
001329f0 l     F .text	00000056 _ZZN6system6kernel3runEvENUlPNS_3hal10interrupts3idt8regs32_tEE12_4_FUNES5_
00132a50 l     F .text	00000034 _ZZN6system6kernel3runEvENUlRSt9arraylistISt11base_stringIcEEE_4_FUNES5_
00132a90 l     F .text	00000011 _ZZN6system6kernel3runEvENUlvE13_4_FUNEv
00132ab0 l     F .text	0000004f _ZZN6system6kernel3runEvENUlRSt9arraylistISt11base_stringIcEEE3_4_FUNES5_
00132b00 l     F .text	00000084 _ZZN6system6kernel3runEvENUlRSt9arraylistISt11base_stringIcEEE7_4_FUNES5_
00132b90 l     F .text	000000bd _ZZN6system6kernel3runEvENUlRSt9arraylistISt11base_stringIcEEE6_4_FUNES5_
00132c50 l     F .text	000000a8 _ZZN6system6kernel3runEvENUlRSt9arraylistISt11base_stringIcEEE8_4_FUNES5_
00132d00 l     F .text	00000074 _ZZN6system6kernel3runEvENUlRSt9arraylistISt11base_stringIcEEE10_4_FUNES5_
00132d80 l     F .text	000000b9 _ZZN6system6kernel3runEvENUlvE11_4_FUNEv
00132e40 l     F .text	00000282 _ZZN6system6kernel3runEvENUlRSt9arraylistISt11base_stringIcEEE4_4_FUNES5_
001330d0 l     F .text	00000270 _ZZN6system6kernel3runEvENUlRSt9arraylistISt11base_stringIcEEE9_4_FUNES5_
00133340 l     F .text	00000e08 _ZZN6system6kernel3runEvENUlRSt9arraylistISt11base_stringIcEEE2_4_FUNES5_
0011d118 l     O .bss	00000008 _ZGVZN6system6kernel9beforerunEvE3drv
0011d120 l     O .bss	00000010 _ZZN6system6kernel9beforerunEvE3drv
00134970 l     F .text	00000297 _ZZN6system6kernel3runEvENUlRSt9arraylistISt11base_stringIcEEE0_4_FUNES5_
00134c10 l     F .text	0000067e _ZZN6system6kernel3runEvENUlRSt9arraylistISt11base_stringIcEEE5_4_FUNES5_
00135290 l     F .text	00000673 _ZZN6system6kernel3runEvENUlRSt9arraylistISt11base_stringIcEEE1_4_FUNES5_
0013dc40 l     F .text.startup	00000083 _GLOBAL__sub_I__ZN6system6kernel3envE
0013de20 l     F .text.exit	0000005c _GLOBAL__sub_D__ZN6system6kernel3envE
00000000 l    df *ABS*	00000000 heap.cpp
00000000 l    df *ABS*	00000000 ubsan.cpp
00000000 l    df *ABS*	00000000 mboot.cpp
00000000 l    df *ABS*	00000000 memory.cpp
00000000 l    df *ABS*	00000000 ports.cpp
00000000 l    df *ABS*	00000000 keyboard.cpp
0011d139 l     O .bss	00000001 _ZL5_skip
0011d138 l     O .bss	00000001 _ZL6_right
00000000 l    df *ABS*	00000000 serial.cpp
0013a950 l     F .text	000000a4 _ZN6system3hal7drivers6serial8serial_t9write_oneEc.part.0
0013aa00 l     F .text	000000a8 _ZN6system3hal7drivers6serial8serial_t6writesEPKcm.part.1
00000000 l    df *ABS*	00000000 vbe.cpp
00000000 l    df *ABS*	00000000 gdt.cpp
00000000 l    df *ABS*	00000000 idt.cpp
0013dcd0 l     F .text.startup	0000004b _GLOBAL__sub_I__ZN6system3hal10interrupts3idt10PIC_masterE
0013de80 l     F .text.exit	00000002 _GLOBAL__sub_D__ZN6system3hal10interrupts3idt10PIC_masterE
00000000 l    df *ABS*	00000000 src/hal/drivers/realmode.asm
00000000 l       *ABS*	00000000 regs16_t
00000000 l       *ABS*	00000000 regs16_t.di
00000002 l       *ABS*	00000000 regs16_t.si
00000004 l       *ABS*	00000000 regs16_t.bp
00000006 l       *ABS*	00000000 regs16_t.sp
00000008 l       *ABS*	00000000 regs16_t.bx
0000000a l       *ABS*	00000000 regs16_t.dx
0000000c l       *ABS*	00000000 regs16_t.cx
0000000e l       *ABS*	00000000 regs16_t.ax
00000010 l       *ABS*	00000000 regs16_t.gs
00000012 l       *ABS*	00000000 regs16_t.fs
00000014 l       *ABS*	00000000 regs16_t.es
00000016 l       *ABS*	00000000 regs16_t.ds
00000018 l       *ABS*	00000000 regs16_t.ef
0000001a l       *ABS*	00000000 regs16_t_size
0013c059 l       .text	00000000 reloc
0013c094 l       .text	00000000 p_mode16
0013c0ae l       .text	00000000 r_mode16
0013c0c8 l       .text	00000000 ib
0013c0ef l       .text	00000000 p_mode32
0013c127 l       .text	00000000 resetpic
0013c148 l       .text	00000000 stack32_ptr
0013c14c l       .text	00000000 idt32_ptr
0013c152 l       .text	00000000 gdt32_ptr
0013c158 l       .text	00000000 idt16_ptr
0013c15e l       .text	00000000 gdt16_base
0013c15e l       .text	00000000 gdt16_base.null
0013c166 l       .text	00000000 gdt16_base.code32
0013c16e l       .text	00000000 gdt16_base.data32
0013c176 l       .text	00000000 gdt16_base.code16
0013c17e l       .text	00000000 gdt16_base.data16
0013c186 l       .text	00000000 gdt16_ptr
0013c18c l       .text	00000000 int32_end
00000000 l    df *ABS*	00000000 src/hal/interrupts/gdt.asm
0013c5ff l       .text	00000000 __gdt_flush_end
0013c616 l       .text	00000000 __idt_flush_end
0013c617 l       .text	00000000 _continue
0013c61e l       .text	00000000 __page_dir_flush_end
0013c631 l       .text	00000000 __page_set_cr0_end
0013c647 l       .text	00000000 __reload_segments_end
00000000 l    df *ABS*	00000000 src/hal/interrupts/idt.asm
0013ce49 l       .text	00000000 n_called
0013ce4d l       .text	00000000 common_irq_stub
0011d1ac g     O .bss	00000004 gdt32_table
00124190 g     F .text	00000102 _ZN6system4core2io4ttys7vbe_ttyD1Ev
0011f4f0 g     F .text	00000154 _ZN6system4core2io3out4initEmmmmhh
00122e40 g     F .text	0000005b _ZN6system4core2io4ttys7vbe_tty6renderEv
00138ee0 g     F .text	00000002 __ubsan_handle_type_mismatch
0013ea10  w    F .text._ZNSt9arraylistIPSt3ttyE3addES1_	00000125 _ZNSt9arraylistIPSt3ttyE3addES1_
00124190 g     F .text	00000102 _ZN6system4core2io4ttys7vbe_ttyD2Ev
0013bfd0 g     F .text	00000063 _ZN6system3hal7drivers3vbe6Driver7DisableEv
001394e0 g     F .text	000001f5 krealloc
001319b0 g     F .text	000003ef _ZN6system4core2io7layouts7english4scanENS_3hal7drivers2kb10scancode_tERSt5arrayISt9special_tEb
0010904d g     O .data	00000001 _ZNSt5dbgio6serialE
0012a890 g     F .text	00000003 _ZN6system4core2io4ttys9error_tty15handle_sequenceERSt5arrayISt5key_tE
0013a3e0 g     F .text	000000a4 _ZN6system3hal7drivers2kb8driver_tC2Ev
00122610 g     F .text	00000012 _ZN6system4core2io3out10putc_colorEcNS1_5colorES3_
0013cd3a g       .text	00000000 isr_30
00138f90 g     F .text	00000006 _ZN6system4grub3getEv
00139720 g     F .text	000001f5 mrealloc
0012d5d0 g     F .text	00000023 dprint_error
001390f0 g     F .text	0000004c memsetw
00139920 g     F .text	00000035 alloc
00139020 g     F .text	0000004b memsetd
0011e480 g     F .text	00000002 vsprintf
0012e6c0 g     F .text	00000015 dprint_debug
0013c6c6 g       .text	00000000 isr_2
001225c0 g     F .text	0000004c _ZN6system4core2io3out7putc_atEchh
0012ab40 g     F .text	00000131 _ZNSt3ttyC1Ehh
00138ef0 g     F .text	00000002 __ubsan_handle_add_overflow
0011d034 g     O .bss	0000001c _ZN6system3env11common_heapE
0013e1e0  w    F .text._ZN6system4core2io4ttys12terminal_tty16register_commandESt11base_stringIcEPFvRSt9arraylistIS5_EE	000007b3 _ZN6system4core2io4ttys12terminal_tty16register_commandESt11base_stringIcEPFvRSt9arraylistIS5_EE
0013a050 g     F .text	00000088 _ZN6system3hal7drivers5ports7port8_t6writesEPKhm
0011d0f4 g     O .bss	0000001c _ZN6system6kernel4heapE
0011e670 g     F .text	0000016f _ZN6system4core2io3outC2Emmmm
00139bb0 g     F .text	00000007 _Z3inwt
0013b200 g     F .text	00000487 _ZN6system3hal7drivers6serial8serial_t15writes_color_lnEPKcmh
0012ac80 g     F .text	0000013c _ZNSt3tty7disposeEv
0013cbd8 g       .text	00000000 isr_24
0013c190 g     F .text	000000f9 _ZN6system3hal10interrupts3gdt9manager_t8set_descEimmNS2_18gdt32_entry_accessENS2_17gdt32_entry_flagsE
0011d0b4 g     O .bss	00000010 _ZNSt4data3tty5_seq1E
00122d70 g     F .text	00000002 _ZN6system4core2io4ttys7vbe_tty12handle_inputERSt5key_t
0012aa60 g     F .text	0000005f _ZN6system4core2io4ttys9error_ttyC2ERSt11base_stringIcE
00122630 g     F .text	00000091 _ZN6system4core2io3out7puts_atEPchh
0013b690 g     F .text	00000186 _ZN6system3hal7drivers3vbe6Driver11FillHeadersEv
0013ce1c g       .text	00000000 irq_12
00123220 g     F .text	000004c3 _ZN6system4core2io4ttys7vbe_tty15handle_sequenceERSt5arrayISt5key_tE
00122860 g     F .text	0000017c _ZN6system4core2io3out4putsERSt11base_stringIcE
0011dddc g     O .bss	00000008 _ZN6system3hal10interrupts3idt10PIC_masterE
0013cdef g       .text	00000000 irq_7
0013c607 g       .text	00000000 __idt_flush
0011c014  w    O .rodata._ZTVN6system4core2io4ttys12terminal_ttyE	00000024 _ZTVN6system4core2io4ttys12terminal_ttyE
0013da70 g     F .text	0000000b _ZN6system3hal10interrupts3idt9manager_t5stateEv
0013c828 g       .text	00000000 isr_8
0013c68b g       .text	00000000 isr_1
0013c777 g       .text	00000000 isr_5
0013d990 g     F .text	0000001e fault_handler
00135ec0 g     F .text	0000026a _ZN6system4core6memory6heap_t12create_entryEm
00139f80 g     F .text	0000007d _ZNK6system3hal7drivers5ports7port8_t5readsEPhm
0013a000 g     F .text	00000042 _ZN6system3hal7drivers5ports7port8_t5writeEh
0013cddd g       .text	00000000 irq_5
0011c0b0  w    O .rodata._ZTVN6system4core2io7layouts7englishE	0000000c _ZTVN6system4core2io7layouts7englishE
00125a70 g     F .text	0000324d _ZN6system4core2io4ttys12terminal_tty14handle_commandEv
0012c4c0 g     F .text	0000019d _ZNSt3tty13internal_initEv
0011d084 g     O .bss	00000010 _ZNSt4data3tty5_seq4E
0013ca3b g       .text	00000000 isr_17
00139200 g     F .text	0000019a memcpy
001394c0 g     F .text	00000015 kfree
00129540 g     F .text	00000002 _ZN6system4core2io4ttys9debug_tty12handle_inputERSt5key_t
0011e7e0 g     F .text	000002d3 _ZN6system4core2io3out5cleanEv
00139f40 g     F .text	00000033 _ZNK6system3hal7drivers5ports7port8_t4readEv
0011d094 g     O .bss	00000010 _ZNSt4data3tty5_seq3E
00122b60 g     F .text	0000000d _ZN6system4core2io3out10puts_colorERSt11base_stringIcENS1_5colorES6_
0011d018 g     O .bss	0000001c _ZN6system3env14lostfound_heapE
00139d00 g     F .text	0000008b _ZN6system3hal7drivers5ports8port32_t6writesEPKmm
0011f4a0 g     F .text	00000043 _ZN6system4core2io3out6renderEv
0012aac0 g     F .text	0000004a _ZN6system4core2io4ttys9error_ttyD2Ev
0013cab1 g       .text	00000000 isr_19
00138eb0 g     F .text	00000002 __cxa_finalize
0012c660 g     F .text	00000591 _ZNSt3tty3setEb
00131da0 g     F .text	00000c40 _ZN6system4core2io7layouts7englishC2Ev
0011e670 g     F .text	0000016f _ZN6system4core2io3outC1Emmmm
0012b1f0 g     F .text	0000007a _ZNSt3tty10write_lineESt11base_stringIcE
0012a880 g     F .text	0000000c _ZN6system4core2io4ttys9error_tty14parse_scancodeENS_3hal7drivers2kb10scancode_tEb
0012ae30 g     F .text	0000006e _ZNSt3tty5writeESt9arraylistIcE
0013ce2e g       .text	00000000 irq_14
001396e0 g     F .text	00000017 malloc
00138f80 g     F .text	0000000a _ZN6system4grub4initEPNS0_13multiboot_hdrE
00122d80 g     F .text	000000bc _ZN6system4core2io4ttys7vbe_tty5enterEv
0011d1a8 g     O .bss	00000004 tss_sect
0013dea0  w    F .text._ZNSt9arraylistISt5arrayISt5key_tEED2Ev	00000068 _ZNSt9arraylistISt5arrayISt5key_tEED2Ev
00134210 g     F .text	00000756 _ZN6system6kernel5tests19alloc_routine_checkEv
0012a770 g     F .text	00000102 _ZN6system4core2io4ttys9debug_ttyD2Ev
0013ab70 g     F .text	0000009f _ZNK6system3hal7drivers6serial8serial_t8read_oneEv
0013c89e g       .text	00000000 isr_10
0013c9c5 g       .text	00000000 isr_15
0013da80 g     F .text	00000028 _ZN6system3hal10interrupts3idt9manager_t12register_irqEhPFvPNS2_8regs32_tEE
00138f70 g     F .text	00000002 __ubsan_handle_vla_bound_not_positive
0011d130 g     O .bss	00000004 __dso_handle
0013aaf0 g     F .text	00000034 _ZNK6system3hal7drivers6serial8serial_t8can_sendEv
00139b90 g     F .text	00000006 _Z3inlt
00122450 g     F .text	00000077 _ZN6system4core2io3out13parse_specialEc
0013c914 g       .text	00000000 isr_12
00136450 g     F .text	00000272 _ZN6system4core6memory6heap_t12shrink_entryESt3ptrINS1_6data_tEEm
0012a8c0 g     F .text	00000002 _ZN6system4core2io4ttys9error_tty5enterEv
0012aac0 g     F .text	0000004a _ZN6system4core2io4ttys9error_ttyD1Ev
0012b050 g     F .text	000000a4 _ZNSt3tty10write_lineERSt9arraylistIcE
0013ce90 g     F .text	00000068 _ZN6system3hal10interrupts3idt9manager_t8set_gateEhmhNS2_12idt32_gate_tEt
0013c650 g       .text	00000000 isr_0
0013cdb0 g       .text	00000000 irq_0
00136c80 g     F .text	0000043b _ZN6system4core6memory6heap_t12unsafe_allocEmNS1_9data_typeE
0013cb62 g       .text	00000000 isr_22
0013dea0  w    F .text._ZNSt9arraylistISt5arrayISt5key_tEED2Ev	00000068 _ZNSt9arraylistISt5arrayISt5key_tEED1Ev
0011d074 g     O .bss	00000010 _ZNSt4data3tty5_seq5E
0013df80  w    F .text._ZNSt9arraylistISt11base_stringIcEED2Ev	00000068 _ZNSt9arraylistISt11base_stringIcEED1Ev
001224d0 g     F .text	0000004c _ZN6system4core2io3out4putcEc
001318f0 g     F .text	00000023 _ZNSt5dbgio10print_infoEPKc
0012aa60 g     F .text	0000005f _ZN6system4core2io4ttys9error_ttyC1ERSt11base_stringIcE
0012d480 g     F .text	0000014c _ZNSt3ttyD2Ev
00134150 g     F .text	00000039 _ZN6system6kernel9bootstrapEPNS_4grub13multiboot_hdrE
0011d0d0 g     O .bss	00000004 _ZN6system6kernel2kbE
0013dff0  w    F .text._ZNSt9arraylistIcED2Ev	00000068 _ZNSt9arraylistIcED2Ev
0013aab0 g     F .text	00000031 _ZNK6system3hal7drivers6serial8serial_t12has_receivedEv
0013bf10 g     F .text	00000035 _ZN6system3hal7drivers3vbe6Driver5ClearEm
00135910 g     F .text	000005a8 _ZN6system6kernel3runEv
0012a8a0 g     F .text	00000002 _ZN6system4core2io4ttys9error_tty12handle_inputERSt5key_t
0012a580 g     F .text	000001e9 _ZN6system4core2io4ttys9debug_ttyC1EPNS1_6layoutE
0012a770 g     F .text	00000102 _ZN6system4core2io4ttys9debug_ttyD1Ev
0013c590 g     F .text	00000054 _ZN6system3hal10interrupts3gdt9manager_t8load_gdtEv
0011d0d4 g     O .bss	0000001c _ZN6system6kernel4ttysE
0013acd0 g     F .text	000000cc _ZN6system3hal7drivers6serial8serial_t9writes_lnEPKcm
0012f770 g     F .text	00000023 _ZNSt5dbgio11print_errorEPKc
00138fa0 g     F .text	00000077 memcpyd
0013c701 g       .text	00000000 isr_3
0013de90  w    F .text._ZN6system4core2io6layout4scanENS_3hal7drivers2kb10scancode_tERSt5arrayISt9special_tEb	00000007 _ZN6system4core2io6layout4scanENS_3hal7drivers2kb10scancode_tERSt5arrayISt9special_tEb
0011e000 g     F .text	000003cc __init
0012a580 g     F .text	000001e9 _ZN6system4core2io4ttys9debug_ttyC2EPNS1_6layoutE
001226d0 g     F .text	00000091 _ZN6system4core2io3out10puts_colorEPcNS1_5colorES4_
0013ba10 g     F .text	0000005b _ZN6system3hal7drivers3vbe6Driver4InitENS_6kernel3gfx13buffer_info_tE
00138ed0 g     F .text	00000002 __ubsan_handle_out_of_bounds
0011d0f0 g     O .bss	00000004 _ZN6system6kernel11current_ttyE
0013cdcb g       .text	00000000 irq_3
0013cde6 g       .text	00000000 irq_6
0012b100 g     F .text	0000007a _ZNSt3tty10write_lineEPc
0012b270 g     F .text	00000051 _ZNSt3tty5clearEv
001366d0 g     F .text	00000233 _ZN6system4core6memory6heap_t2atEi
0012afa0 g     F .text	000000a4 _ZNSt3tty10write_lineERSt5arrayIcE
0013a0e0 g     F .text	00000088 _ZN6system3hal7drivers5ports7port8_t6writesEPKcm
00122ea0 g     F .text	0000004e _ZN6system4core2io4ttys7vbe_tty4exitEv
0011d0a4 g     O .bss	00000010 _ZNSt4data3tty5_seq2E
00139dd0 g     F .text	00000081 _ZNK6system3hal7drivers5ports8port16_t5readsEPtm
0013daa8 g       .text	00000000 KEND
00139bf0 g     F .text	00000033 _ZNK6system3hal7drivers5ports8port32_t4readEv
0013ce0a g       .text	00000000 irq_10
0013ce13 g       .text	00000000 irq_11
0013ce40 g       .text	00000000 irq_16
0013e130  w    F .text._ZNSt11base_stringIcED2Ev	000000a2 _ZNSt11base_stringIcED1Ev
00139d90 g     F .text	00000034 _ZNK6system3hal7drivers5ports8port16_t4readEv
0013ba70 g     F .text	0000005a _ZN6system3hal7drivers3vbe6Driver8SetPixelEmmm
001227c0 g     F .text	00000091 _ZN6system4core2io3out13puts_color_atEPcNS1_5colorES4_hh
0013c5f0 g       .text	00000000 __gdt_flush
00138f20 g     F .text	00000002 __ubsan_handle_negate_overflow
00136910 g     F .text	0000036d _ZN6system4core6memory6heap_t10defragmentEb
0012af00 g     F .text	00000040 _ZNSt3tty5writeEc
0013efb0  w    F .text._ZNSt5arrayISt5key_tE2atEi	000000d8 _ZNSt5arrayISt5key_tE2atEi
0013e060  w    F .text._ZNSt9arraylistISt5key_tED2Ev	00000068 _ZNSt9arraylistISt5key_tED1Ev
00139e60 g     F .text	00000043 _ZN6system3hal7drivers5ports8port16_t5writeEt
001319a0 g     F .text	0000000c fatal
0013cc13 g       .text	00000000 isr_25
0011f6d0 g     F .text	00002643 _ZN6system4core2io3out13format_stringEPcPKcS3_
00109050 g     O .data	00000004 _ZNSt5dbgio9debug_lvlE
00125480 g     F .text	00000061 _ZN6system4core2io4ttys12terminal_tty10print_termEv
0013a490 g     F .text	000003f5 _ZN6system3hal7drivers2kb8driver_t5startEv
0013e0d0  w    F .text._ZNSt5arrayISt5key_tED2Ev	0000005f _ZNSt5arrayISt5key_tED2Ev
001229e0 g     F .text	0000017c _ZN6system4core2io3out7puts_atERSt11base_stringIcEhh
0011e3d0 g     F .text	0000005d _start
00124ab0 g     F .text	00000815 _ZN6system4core2io4ttys12terminal_tty17register_sequenceERSt5arrayISt5key_tEPFvvE
0013cc89 g       .text	00000000 isr_27
0013eb40  w    F .text._ZNSt11base_stringIcEC2EPcb	00000461 _ZNSt11base_stringIcEC1EPcb
00138ec0 g     F .text	00000002 __cxa_pure_virtual
00139eb0 g     F .text	0000008d _ZN6system3hal7drivers5ports8port16_t6writesEPKtm
00123f10 g     F .text	00000272 _ZN6system4core2io4ttys7vbe_ttyC2EPNS1_6layoutEtt
00122b70 g     F .text	0000017c _ZN6system4core2io3out13puts_color_atERSt11base_stringIcENS1_5colorES6_hh
0013c94f g       .text	00000000 isr_13
0011d000 g     O .bss	00000004 mboot
0012a8b0 g     F .text	00000006 _ZN6system4core2io4ttys9error_tty17register_sequenceERSt5arrayISt5key_tEPFvvE
0013e0d0  w    F .text._ZNSt5arrayISt5key_tED2Ev	0000005f _ZNSt5arrayISt5key_tED1Ev
001399e0 g     F .text	000001ac realloc
00138f10 g     F .text	00000002 __ubsan_handle_mul_overflow
0013ada0 g     F .text	0000045d _ZN6system3hal7drivers6serial8serial_t12writes_colorEPKcmh
00138ea0 g     F .text	00000003 __cxa_atexit
0013ca76 g       .text	00000000 isr_18
00136130 g     F .text	0000031f _ZN6system4core6memory6heap_t15combine_entriesESt3ptrINS1_6data_tEES5_
00123f10 g     F .text	00000272 _ZN6system4core2io4ttys7vbe_ttyC1EPNS1_6layoutEtt
00139c30 g     F .text	00000083 _ZNK6system3hal7drivers5ports8port32_t5readsEPmm
0013c7ed g       .text	00000000 isr_7
00130830 g     F .text	00000023 _ZNSt5dbgio10print_warnEPKc
0012e690 g     F .text	00000023 _ZNSt5dbgio11print_debugEPKc
0013c73c g       .text	00000000 isr_4
0013ab30 g     F .text	00000031 _ZNK6system3hal7drivers6serial8serial_t9has_errorEv
0013e9a0  w    F .text._ZNSt9arraylistIPSt3ttyED2Ev	00000068 _ZNSt9arraylistIPSt3ttyED2Ev
0013ccc4 g       .text	00000000 isr_28
001245e0 g     F .text	000004c3 _ZN6system4core2io4ttys12terminal_tty15handle_sequenceERSt5arrayISt5key_tE
0013df10  w    F .text._ZNSt9arraylistIPFvvEED2Ev	00000068 _ZNSt9arraylistIPFvvEED2Ev
00138f30 g     F .text	00000002 __ubsan_handle_divrem_overflow
0013dff0  w    F .text._ZNSt9arraylistIcED2Ev	00000068 _ZNSt9arraylistIcED1Ev
001370c0 g     F .text	00000217 _ZN6system4core6memory6heap_t4freeEPv
00129560 g     F .text	00000328 _ZN6system4core2io4ttys9debug_tty14parse_scancodeENS_3hal7drivers2kb10scancode_tEb
001236f0 g     F .text	00000815 _ZN6system4core2io4ttys7vbe_tty17register_sequenceERSt5arrayISt5key_tEPFvvE
00138f40 g     F .text	00000002 __ubsan_handle_missing_return
0013cdc2 g       .text	00000000 irq_2
001393a0 g     F .text	000000fc memset
0013c040 g       .text	00000000 int32
0013cdb9 g       .text	00000000 irq_1
0011ddc4 g     O .bss	00000008 _ZN6system3hal10interrupts3idt15PIC_second_ctrlE
0011ddc0 g     O .bss	00000004 _idtr
0011d1c0 g     O .bss	00000400 callbacks_table
0011d1b0 g     O .bss	00000004 __gdtr
0013cb27 g       .text	00000000 isr_21
0011d050 g     O .bss	00000004 _ZN6system3env12current_heapE
0012aea0 g     F .text	00000055 _ZNSt3tty5writeEPc
00122400 g     F .text	00000050 _ZN6system4core2io3out8new_lineEv
00122520 g     F .text	00000091 _ZN6system4core2io3out4putsEPc
0013cb9d g       .text	00000000 isr_23
0011d0c8 g     O .bss	00000001 _ZNSt5dbgio3ttyE
00131da0 g     F .text	00000c40 _ZN6system4core2io7layouts7englishC1Ev
00131940 g     F .text	00000023 dprint_warn
001242b0 g     F .text	00000328 _ZN6system4core2io4ttys12terminal_tty14parse_scancodeENS_3hal7drivers2kb10scancode_tEb
0011edb0 g     F .text	00000354 _ZN6system4core2io3out5cleanENS1_5colorES3_hh
0011ddd4 g     O .bss	00000008 _ZN6system3hal10interrupts3idt15PIC_master_ctrlE
0013da50 g     F .text	00000012 _ZN6system3hal10interrupts3idt9manager_t18disable_interruptsEv
0012d480 g     F .text	0000014c _ZNSt3ttyD1Ev
0013d9b0 g     F .text	0000007d interrupt_handler
0013cd75 g       .text	00000000 isr_31
0012bdb0 g     F .text	00000703 _ZNSt3tty4initEv
0011d134 g     O .bss	00000004 _ZN6system4grub9mboot_ptrE
0011c0a4  w    O .rodata._ZTVN6system4core2io6layoutE	0000000c _ZTVN6system4core2io6layoutE
00139140 g     F .text	0000006d memcpyb
0011e470 g     F .text	00000002 sprintf
0013eb40  w    F .text._ZNSt11base_stringIcEC2EPcb	00000461 _ZNSt11base_stringIcEC2EPcb
0012a8c0 g     F .text	00000002 _ZN6system4core2io4ttys9error_tty4exitEv
0013df80  w    F .text._ZNSt9arraylistISt11base_stringIcEED2Ev	00000068 _ZNSt9arraylistISt11base_stringIcEED2Ev
00138e90 g     F .text	00000003 atexit
00138f60 g     F .text	00000002 __ubsan_handle_shift_out_of_bounds
0011d140 g     O .bss	00000068 __tss
00139700 g     F .text	00000015 mfree
001391b0 g     F .text	0000004f memsetb
00138f00 g     F .text	00000002 __ubsan_handle_sub_overflow
0013cdd4 g       .text	00000000 irq_4
0013cdf8 g       .text	00000000 irq_8
00139ba0 g     F .text	0000000a _Z4outltm
0013bed0 g     F .text	00000033 _ZN6system3hal7drivers3vbe6Driver5ClearEv
00131920 g     F .text	00000015 dprint_info
0013bb90 g     F .text	00000248 _ZN6system3hal7drivers3vbe6Driver8DrawCharEiicNS_6kernel3gfx4FontEmm
0011c080  w    O .rodata._ZTVSt3tty	00000024 _ZTVSt3tty
00139bd0 g     F .text	00000006 _Z3inbt
0012af40 g     F .text	00000055 _ZNSt3tty5writeERSt11base_stringIcE
0013ce37 g       .text	00000000 irq_15
00121d20 g     F .text	000002fb _ZN6system4core2io3out9backspaceEv
0013ac60 g     F .text	00000061 _ZN6system3hal7drivers6serial8serial_t6writesEPKcm
0013c040 g       .text	00000000 _int32
001254f0 g     F .text	00000578 _ZN6system4core2io4ttys12terminal_ttyC2EPNS1_6layoutENS1_5colorES6_
00122cf0 g     F .text	00000071 _ZN6system4core2io3out5sinitEv
00128cc0 g     F .text	00000871 _ZN6system4core2io4ttys12terminal_tty12handle_inputERSt5key_t
0012a8d0 g     F .text	00000183 _ZN6system4core2io4ttys9error_ttyC2EPc
0013c863 g       .text	00000000 isr_9
0013ac10 g     F .text	00000047 _ZN6system3hal7drivers6serial8serial_t9write_oneEc
00139070 g     F .text	00000079 memcpyw
0010d3a0 g     O .data	00000080 exceptions
0011d5c0 g     O .bss	00000800 idt32_table
0013e130  w    F .text._ZNSt11base_stringIcED2Ev	000000a2 _ZNSt11base_stringIcED2Ev
0011c038  w    O .rodata._ZTVN6system4core2io4ttys9debug_ttyE	00000024 _ZTVN6system4core2io4ttys9debug_ttyE
001372e0 g     F .text	00001baf _ZN6system4core6memory6heap_t11print_tableEv
0013cc4e g       .text	00000000 isr_26
0013b820 g     F .text	000001e8 _ZN6system3hal7drivers3vbe6Driver7SetModeEii
00131970 g     F .text	00000030 _ZNSt5dbgio11fatal_errorEPKc
0012ab40 g     F .text	00000131 _ZNSt3ttyC2Ehh
0013da30 g     F .text	00000012 _ZN6system3hal10interrupts3idt9manager_t17enable_interruptsEv
001252d0 g     F .text	000001a5 _ZN6system4core2io4ttys12terminal_tty5enterEv
0013ce25 g       .text	00000000 irq_13
0011d054 g     O .bss	00000010 _ZNSt4data3tty7_seq_bkE
0013c61f g       .text	00000000 __page_set_cr0
0013c7b2 g       .text	00000000 isr_6
00129d60 g     F .text	00000815 _ZN6system4core2io4ttys9debug_tty17register_sequenceERSt5arrayISt5key_tEPFvvE
0013c290 g     F .text	000002f5 _ZN6system3hal10interrupts3gdt9manager_t12init_entriesEv
0012b180 g     F .text	00000068 _ZNSt3tty10write_lineEc
0012ab10 g     F .text	0000002d _ZNSt3tty6renderEv
00129550 g     F .text	00000002 _ZN6system4core2io4ttys9debug_tty4exitEv
0012b2d0 g     F .text	00000ad1 _ZNSt3tty15handle_scancodeEN6system3hal7drivers2kb10scancode_tEb
0011d110 g     O .bss	00000004 _ZN6system6kernel3envE
0011f110 g     F .text	00000382 _ZN6system4core2io3out5cleanENS1_5colorES3_hhhh
00122020 g     F .text	000003d4 _ZN6system4core2io3out7move_upEv
0013cf00 g     F .text	00000a88 _ZN6system3hal10interrupts3idt9manager_t4initEv
0011c05c  w    O .rodata._ZTVN6system4core2io4ttys9error_ttyE	00000024 _ZTVN6system4core2io4ttys9error_ttyE
00139cc0 g     F .text	0000003e _ZN6system3hal7drivers5ports8port32_t5writeEm
0013bf50 g     F .text	00000035 _ZN6system3hal7drivers3vbe6Driver5ClearE9VBE_COLOR
00129890 g     F .text	000004c3 _ZN6system4core2io4ttys9debug_tty15handle_sequenceERSt5arrayISt5key_tE
0013a890 g     F .text	000000b4 _ZN6system3hal7drivers2kb8driver_t4stopEv
00139bc0 g     F .text	0000000b _Z4outwtt
00139be0 g     F .text	0000000a _Z4outbth
0013c8d9 g       .text	00000000 isr_11
0013c98a g       .text	00000000 isr_14
00138f50 g     F .text	00000002 __ubsan_handle_load_invalid_value
0011bff0  w    O .rodata._ZTVN6system4core2io4ttys7vbe_ttyE	00000024 _ZTVN6system4core2io4ttys7vbe_ttyE
0012a8d0 g     F .text	00000183 _ZN6system4core2io4ttys9error_ttyC1EPc
0013bf90 g     F .text	00000034 _ZN6system3hal7drivers3vbe6Driver6RenderEv
0013ca00 g       .text	00000000 isr_16
0013e9a0  w    F .text._ZNSt9arraylistIPSt3ttyED2Ev	00000068 _ZNSt9arraylistIPSt3ttyED1Ev
00100000 g     O .data	00000030 multiboot
0013df10  w    F .text._ZNSt9arraylistIPFvvEED2Ev	00000068 _ZNSt9arraylistIPFvvEED1Ev
00129550 g     F .text	00000002 _ZN6system4core2io4ttys9debug_tty5enterEv
0013bad0 g     F .text	000000b2 _ZN6system3hal7drivers3vbe6Driver10FilledRectEiiiim
001399d0 g     F .text	00000003 freelst
0011d064 g     O .bss	00000010 _ZNSt4data3tty7_seq_fwE
001254f0 g     F .text	00000578 _ZN6system4core2io4ttys12terminal_ttyC1EPNS1_6layoutENS1_5colorES6_
0013ce01 g       .text	00000000 irq_9
001394a0 g     F .text	00000017 kalloc
0011eac0 g     F .text	000002ed _ZN6system4core2io3out5cleanENS1_5colorES3_
00122ef0 g     F .text	00000328 _ZN6system4core2io4ttys7vbe_tty14parse_scancodeENS_3hal7drivers2kb10scancode_tEb
00134190 g     F .text	00000071 _ZN6system6kernel9beforerunEv
0011d0c4 g     O .bss	00000004 _ZSt8ctty_num
0013ccff g       .text	00000000 isr_29
0011e430 g     F .text	0000003a _ZN6system6kernel3gfx15vbe_buffer_initEmm
0013c632 g       .text	00000000 __reload_regs
0013a3e0 g     F .text	000000a4 _ZN6system3hal7drivers2kb8driver_tC1Ev
0012adc0 g     F .text	0000006e _ZNSt3tty5writeESt5arrayIcE
0011f650 g     F .text	00000076 _ZN6system4core2io3out7disposeEv
0011d004 g     O .bss	00000014 regions
0013caec g       .text	00000000 isr_20
00139960 g     F .text	00000064 free
0011ddcc g     O .bss	00000008 _ZN6system3hal10interrupts3idt10PIC_secondE
00122770 g     F .text	0000004c _ZN6system4core2io3out13putc_color_atEcNS1_5colorES3_hh
0013bde0 g     F .text	000000e6 _ZN6system3hal7drivers3vbe6Driver10DrawStringEiiPcNS_6kernel3gfx4FontEmm
0013e060  w    F .text._ZNSt9arraylistISt5key_tED2Ev	00000068 _ZNSt9arraylistISt5key_tED2Ev
0013a170 g     F .text	0000026b _ZN6system3hal7drivers2kb8driver_t6handleEPNS0_10interrupts3idt8regs32_tE
001242a0 g     F .text	00000002 _ZN6system4core2io4ttys12terminal_tty4exitEv



Disassembly of section .text:

0011e000 <__init>:
  11e000:	57                   	push   edi
  11e001:	56                   	push   esi
  11e002:	b8 fa 03 00 00       	mov    eax,0x3fa
  11e007:	53                   	push   ebx
  11e008:	ba ff 03 00 00       	mov    edx,0x3ff
  11e00d:	bb f8 03 00 00       	mov    ebx,0x3f8
  11e012:	be f8 03 00 00       	mov    esi,0x3f8
  11e017:	bf f9 03 00 00       	mov    edi,0x3f9
  11e01c:	83 ec 58             	sub    esp,0x58
  11e01f:	66 89 44 24 1c       	mov    WORD PTR [esp+0x1c],ax
  11e024:	b8 fa 03 00 00       	mov    eax,0x3fa
  11e029:	66 89 54 24 4c       	mov    WORD PTR [esp+0x4c],dx
  11e02e:	66 89 44 24 24       	mov    WORD PTR [esp+0x24],ax
  11e033:	b8 fb 03 00 00       	mov    eax,0x3fb
  11e038:	66 89 7c 24 14       	mov    WORD PTR [esp+0x14],di
  11e03d:	66 89 44 24 2c       	mov    WORD PTR [esp+0x2c],ax
  11e042:	b8 fc 03 00 00       	mov    eax,0x3fc
  11e047:	66 89 5c 24 08       	mov    WORD PTR [esp+0x8],bx
  11e04c:	66 89 44 24 34       	mov    WORD PTR [esp+0x34],ax
  11e051:	b8 fd 03 00 00       	mov    eax,0x3fd
  11e056:	66 89 74 24 0c       	mov    WORD PTR [esp+0xc],si
  11e05b:	66 89 44 24 3c       	mov    WORD PTR [esp+0x3c],ax
  11e060:	b8 fe 03 00 00       	mov    eax,0x3fe
  11e065:	c7 44 24 10 02 00 00 00 	mov    DWORD PTR [esp+0x10],0x2
  11e06d:	c7 44 24 18 01 00 00 00 	mov    DWORD PTR [esp+0x18],0x1
  11e075:	c7 44 24 20 00 00 00 00 	mov    DWORD PTR [esp+0x20],0x0
  11e07d:	c7 44 24 28 01 00 00 00 	mov    DWORD PTR [esp+0x28],0x1
  11e085:	c7 44 24 30 01 00 00 00 	mov    DWORD PTR [esp+0x30],0x1
  11e08d:	c7 44 24 38 01 00 00 00 	mov    DWORD PTR [esp+0x38],0x1
  11e095:	c7 44 24 40 00 00 00 00 	mov    DWORD PTR [esp+0x40],0x0
  11e09d:	66 89 44 24 44       	mov    WORD PTR [esp+0x44],ax
  11e0a2:	c7 44 24 48 00 00 00 00 	mov    DWORD PTR [esp+0x48],0x0
  11e0aa:	c7 44 24 50 00 00 00 00 	mov    DWORD PTR [esp+0x50],0x0
  11e0b2:	c6 44 24 54 00       	mov    BYTE PTR [esp+0x54],0x0
  11e0b7:	c6 44 24 55 ff       	mov    BYTE PTR [esp+0x55],0xff
  11e0bc:	c6 44 24 56 01       	mov    BYTE PTR [esp+0x56],0x1
  11e0c1:	6a 00                	push   0x0
  11e0c3:	8d 7c 24 18          	lea    edi,[esp+0x18]
  11e0c7:	57                   	push   edi
  11e0c8:	e8 33 bf 01 00       	call   13a000 <_ZN6system3hal7drivers5ports7port8_t5writeEh>
  11e0cd:	59                   	pop    ecx
  11e0ce:	5b                   	pop    ebx
  11e0cf:	68 80 00 00 00       	push   0x80
  11e0d4:	8d 5c 24 30          	lea    ebx,[esp+0x30]
  11e0d8:	53                   	push   ebx
  11e0d9:	e8 22 bf 01 00       	call   13a000 <_ZN6system3hal7drivers5ports7port8_t5writeEh>
  11e0de:	5e                   	pop    esi
  11e0df:	58                   	pop    eax
  11e0e0:	6a 03                	push   0x3
  11e0e2:	8d 74 24 10          	lea    esi,[esp+0x10]
  11e0e6:	56                   	push   esi
  11e0e7:	e8 14 bf 01 00       	call   13a000 <_ZN6system3hal7drivers5ports7port8_t5writeEh>
  11e0ec:	58                   	pop    eax
  11e0ed:	5a                   	pop    edx
  11e0ee:	6a 00                	push   0x0
  11e0f0:	57                   	push   edi
  11e0f1:	e8 0a bf 01 00       	call   13a000 <_ZN6system3hal7drivers5ports7port8_t5writeEh>
  11e0f6:	59                   	pop    ecx
  11e0f7:	5f                   	pop    edi
  11e0f8:	6a 03                	push   0x3
  11e0fa:	53                   	push   ebx
  11e0fb:	e8 00 bf 01 00       	call   13a000 <_ZN6system3hal7drivers5ports7port8_t5writeEh>
  11e100:	58                   	pop    eax
  11e101:	5a                   	pop    edx
  11e102:	68 c7 00 00 00       	push   0xc7
  11e107:	8d 44 24 28          	lea    eax,[esp+0x28]
  11e10b:	50                   	push   eax
  11e10c:	e8 ef be 01 00       	call   13a000 <_ZN6system3hal7drivers5ports7port8_t5writeEh>
  11e111:	59                   	pop    ecx
  11e112:	5b                   	pop    ebx
  11e113:	6a 0b                	push   0xb
  11e115:	8d 5c 24 38          	lea    ebx,[esp+0x38]
  11e119:	53                   	push   ebx
  11e11a:	e8 e1 be 01 00       	call   13a000 <_ZN6system3hal7drivers5ports7port8_t5writeEh>
  11e11f:	5f                   	pop    edi
  11e120:	58                   	pop    eax
  11e121:	6a 1e                	push   0x1e
  11e123:	53                   	push   ebx
  11e124:	e8 d7 be 01 00       	call   13a000 <_ZN6system3hal7drivers5ports7port8_t5writeEh>
  11e129:	58                   	pop    eax
  11e12a:	5a                   	pop    edx
  11e12b:	68 ae 00 00 00       	push   0xae
  11e130:	56                   	push   esi
  11e131:	e8 ca be 01 00       	call   13a000 <_ZN6system3hal7drivers5ports7port8_t5writeEh>
  11e136:	89 34 24             	mov    DWORD PTR [esp],esi
  11e139:	e8 02 be 01 00       	call   139f40 <_ZNK6system3hal7drivers5ports7port8_t4readEv>
  11e13e:	83 c4 10             	add    esp,0x10
  11e141:	3c ae                	cmp    al,0xae
  11e143:	0f 84 7e 00 00 00    	je     11e1c7 <__init+0x1c7>
  11e149:	bb f4 d0 11 00       	mov    ebx,0x11d0f4
  11e14e:	89 25 10 d1 11 00    	mov    DWORD PTR ds:0x11d110,esp
  11e154:	c7 05 50 90 10 00 04 00 00 00 	mov    DWORD PTR ds:0x109050,0x4
  11e15e:	85 db                	test   ebx,ebx
  11e160:	8b 35 0c d0 11 00    	mov    esi,DWORD PTR ds:0x11d00c
  11e166:	8b 3d 08 d0 11 00    	mov    edi,DWORD PTR ds:0x11d008
  11e16c:	0f 84 45 02 00 00    	je     11e3b7 <__init+0x3b7>
  11e172:	80 3d 0c d1 11 00 00 	cmp    BYTE PTR ds:0x11d10c,0x0
  11e179:	0f 84 f7 00 00 00    	je     11e276 <__init+0x276>
  11e17f:	80 3d 4c d0 11 00 00 	cmp    BYTE PTR ds:0x11d04c,0x0
  11e186:	8b 15 10 d0 11 00    	mov    edx,DWORD PTR ds:0x11d010
  11e18c:	0f 84 97 00 00 00    	je     11e229 <__init+0x229>
  11e192:	80 3d 30 d0 11 00 00 	cmp    BYTE PTR ds:0x11d030,0x0
  11e199:	a1 14 d0 11 00       	mov    eax,ds:0x11d014
  11e19e:	74 3e                	je     11e1de <__init+0x1de>
  11e1a0:	83 ec 0c             	sub    esp,0xc
  11e1a3:	ff 35 00 d0 11 00    	push   DWORD PTR ds:0x11d000
  11e1a9:	c7 05 50 d0 11 00 f4 d0 11 00 	mov    DWORD PTR ds:0x11d050,0x11d0f4
  11e1b3:	e8 98 5f 01 00       	call   134150 <_ZN6system6kernel9bootstrapEPNS_4grub13multiboot_hdrE>
  11e1b8:	e8 d3 5f 01 00       	call   134190 <_ZN6system6kernel9beforerunEv>
  11e1bd:	83 c4 10             	add    esp,0x10
  11e1c0:	e8 4b 77 01 00       	call   135910 <_ZN6system6kernel3runEv>
  11e1c5:	eb f9                	jmp    11e1c0 <__init+0x1c0>
  11e1c7:	51                   	push   ecx
  11e1c8:	51                   	push   ecx
  11e1c9:	6a 0f                	push   0xf
  11e1cb:	53                   	push   ebx
  11e1cc:	e8 2f be 01 00       	call   13a000 <_ZN6system3hal7drivers5ports7port8_t5writeEh>
  11e1d1:	c6 44 24 5c 01       	mov    BYTE PTR [esp+0x5c],0x1
  11e1d6:	83 c4 10             	add    esp,0x10
  11e1d9:	e9 6b ff ff ff       	jmp    11e149 <__init+0x149>
  11e1de:	83 3d 1c d0 11 00 00 	cmp    DWORD PTR ds:0x11d01c,0x0
  11e1e5:	75 25                	jne    11e20c <__init+0x20c>
  11e1e7:	29 d0                	sub    eax,edx
  11e1e9:	89 15 1c d0 11 00    	mov    DWORD PTR ds:0x11d01c,edx
  11e1ef:	c6 05 20 d0 11 00 01 	mov    BYTE PTR ds:0x11d020,0x1
  11e1f6:	a3 18 d0 11 00       	mov    ds:0x11d018,eax
  11e1fb:	c7 05 24 d0 11 00 00 00 00 00 	mov    DWORD PTR ds:0x11d024,0x0
  11e205:	c6 05 28 d0 11 00 01 	mov    BYTE PTR ds:0x11d028,0x1
  11e20c:	c6 05 30 d0 11 00 01 	mov    BYTE PTR ds:0x11d030,0x1
  11e213:	c6 05 31 d0 11 00 01 	mov    BYTE PTR ds:0x11d031,0x1
  11e21a:	c7 05 2c d0 11 00 00 00 00 00 	mov    DWORD PTR ds:0x11d02c,0x0
  11e224:	e9 77 ff ff ff       	jmp    11e1a0 <__init+0x1a0>
  11e229:	83 3d 38 d0 11 00 00 	cmp    DWORD PTR ds:0x11d038,0x0
  11e230:	75 27                	jne    11e259 <__init+0x259>
  11e232:	89 d0                	mov    eax,edx
  11e234:	89 35 38 d0 11 00    	mov    DWORD PTR ds:0x11d038,esi
  11e23a:	c6 05 3c d0 11 00 01 	mov    BYTE PTR ds:0x11d03c,0x1
  11e241:	29 f0                	sub    eax,esi
  11e243:	c7 05 40 d0 11 00 00 00 00 00 	mov    DWORD PTR ds:0x11d040,0x0
  11e24d:	c6 05 44 d0 11 00 01 	mov    BYTE PTR ds:0x11d044,0x1
  11e254:	a3 34 d0 11 00       	mov    ds:0x11d034,eax
  11e259:	c6 05 4c d0 11 00 01 	mov    BYTE PTR ds:0x11d04c,0x1
  11e260:	c6 05 4d d0 11 00 01 	mov    BYTE PTR ds:0x11d04d,0x1
  11e267:	c7 05 48 d0 11 00 00 00 00 00 	mov    DWORD PTR ds:0x11d048,0x0
  11e271:	e9 1c ff ff ff       	jmp    11e192 <__init+0x192>
  11e276:	85 db                	test   ebx,ebx
  11e278:	75 14                	jne    11e28e <__init+0x28e>
  11e27a:	50                   	push   eax
  11e27b:	50                   	push   eax
  11e27c:	68 f4 d0 11 00       	push   0x11d0f4
  11e281:	68 08 01 10 00       	push   0x100108
  11e286:	e8 55 ac 01 00       	call   138ee0 <__ubsan_handle_type_mismatch>
  11e28b:	83 c4 10             	add    esp,0x10
  11e28e:	85 db                	test   ebx,ebx
  11e290:	75 14                	jne    11e2a6 <__init+0x2a6>
  11e292:	50                   	push   eax
  11e293:	50                   	push   eax
  11e294:	68 f4 d0 11 00       	push   0x11d0f4
  11e299:	68 f0 00 10 00       	push   0x1000f0
  11e29e:	e8 3d ac 01 00       	call   138ee0 <__ubsan_handle_type_mismatch>
  11e2a3:	83 c4 10             	add    esp,0x10
  11e2a6:	83 3d f8 d0 11 00 00 	cmp    DWORD PTR ds:0x11d0f8,0x0
  11e2ad:	0f 85 9f 00 00 00    	jne    11e352 <__init+0x352>
  11e2b3:	85 db                	test   ebx,ebx
  11e2b5:	75 14                	jne    11e2cb <__init+0x2cb>
  11e2b7:	50                   	push   eax
  11e2b8:	50                   	push   eax
  11e2b9:	68 f4 d0 11 00       	push   0x11d0f4
  11e2be:	68 d8 00 10 00       	push   0x1000d8
  11e2c3:	e8 18 ac 01 00       	call   138ee0 <__ubsan_handle_type_mismatch>
  11e2c8:	83 c4 10             	add    esp,0x10
  11e2cb:	85 db                	test   ebx,ebx
  11e2cd:	89 3d f8 d0 11 00    	mov    DWORD PTR ds:0x11d0f8,edi
  11e2d3:	75 14                	jne    11e2e9 <__init+0x2e9>
  11e2d5:	50                   	push   eax
  11e2d6:	50                   	push   eax
  11e2d7:	68 f4 d0 11 00       	push   0x11d0f4
  11e2dc:	68 c0 00 10 00       	push   0x1000c0
  11e2e1:	e8 fa ab 01 00       	call   138ee0 <__ubsan_handle_type_mismatch>
  11e2e6:	83 c4 10             	add    esp,0x10
  11e2e9:	89 f0                	mov    eax,esi
  11e2eb:	29 f8                	sub    eax,edi
  11e2ed:	85 db                	test   ebx,ebx
  11e2ef:	a3 f4 d0 11 00       	mov    ds:0x11d0f4,eax
  11e2f4:	75 14                	jne    11e30a <__init+0x30a>
  11e2f6:	50                   	push   eax
  11e2f7:	50                   	push   eax
  11e2f8:	68 f4 d0 11 00       	push   0x11d0f4
  11e2fd:	68 a8 00 10 00       	push   0x1000a8
  11e302:	e8 d9 ab 01 00       	call   138ee0 <__ubsan_handle_type_mismatch>
  11e307:	83 c4 10             	add    esp,0x10
  11e30a:	85 db                	test   ebx,ebx
  11e30c:	c6 05 fc d0 11 00 01 	mov    BYTE PTR ds:0x11d0fc,0x1
  11e313:	75 14                	jne    11e329 <__init+0x329>
  11e315:	50                   	push   eax
  11e316:	50                   	push   eax
  11e317:	68 f4 d0 11 00       	push   0x11d0f4
  11e31c:	68 90 00 10 00       	push   0x100090
  11e321:	e8 ba ab 01 00       	call   138ee0 <__ubsan_handle_type_mismatch>
  11e326:	83 c4 10             	add    esp,0x10
  11e329:	85 db                	test   ebx,ebx
  11e32b:	c7 05 00 d1 11 00 00 00 00 00 	mov    DWORD PTR ds:0x11d100,0x0
  11e335:	75 14                	jne    11e34b <__init+0x34b>
  11e337:	57                   	push   edi
  11e338:	57                   	push   edi
  11e339:	68 f4 d0 11 00       	push   0x11d0f4
  11e33e:	68 78 00 10 00       	push   0x100078
  11e343:	e8 98 ab 01 00       	call   138ee0 <__ubsan_handle_type_mismatch>
  11e348:	83 c4 10             	add    esp,0x10
  11e34b:	c6 05 04 d1 11 00 01 	mov    BYTE PTR ds:0x11d104,0x1
  11e352:	85 db                	test   ebx,ebx
  11e354:	75 14                	jne    11e36a <__init+0x36a>
  11e356:	51                   	push   ecx
  11e357:	51                   	push   ecx
  11e358:	68 f4 d0 11 00       	push   0x11d0f4
  11e35d:	68 60 00 10 00       	push   0x100060
  11e362:	e8 79 ab 01 00       	call   138ee0 <__ubsan_handle_type_mismatch>
  11e367:	83 c4 10             	add    esp,0x10
  11e36a:	85 db                	test   ebx,ebx
  11e36c:	c6 05 0c d1 11 00 01 	mov    BYTE PTR ds:0x11d10c,0x1
  11e373:	75 14                	jne    11e389 <__init+0x389>
  11e375:	52                   	push   edx
  11e376:	52                   	push   edx
  11e377:	68 f4 d0 11 00       	push   0x11d0f4
  11e37c:	68 48 00 10 00       	push   0x100048
  11e381:	e8 5a ab 01 00       	call   138ee0 <__ubsan_handle_type_mismatch>
  11e386:	83 c4 10             	add    esp,0x10
  11e389:	85 db                	test   ebx,ebx
  11e38b:	c6 05 0d d1 11 00 01 	mov    BYTE PTR ds:0x11d10d,0x1
  11e392:	75 14                	jne    11e3a8 <__init+0x3a8>
  11e394:	50                   	push   eax
  11e395:	50                   	push   eax
  11e396:	68 f4 d0 11 00       	push   0x11d0f4
  11e39b:	68 30 00 10 00       	push   0x100030
  11e3a0:	e8 3b ab 01 00       	call   138ee0 <__ubsan_handle_type_mismatch>
  11e3a5:	83 c4 10             	add    esp,0x10
  11e3a8:	c7 05 08 d1 11 00 00 00 00 00 	mov    DWORD PTR ds:0x11d108,0x0
  11e3b2:	e9 c8 fd ff ff       	jmp    11e17f <__init+0x17f>
  11e3b7:	52                   	push   edx
  11e3b8:	52                   	push   edx
  11e3b9:	53                   	push   ebx
  11e3ba:	68 34 01 10 00       	push   0x100134
  11e3bf:	e8 1c ab 01 00       	call   138ee0 <__ubsan_handle_type_mismatch>
  11e3c4:	83 c4 10             	add    esp,0x10
  11e3c7:	e9 a6 fd ff ff       	jmp    11e172 <__init+0x172>
  11e3cc:	8d 74 26 00          	lea    esi,[esi+eiz*1+0x0]

0011e3d0 <_start>:
  11e3d0:	83 ec 1c             	sub    esp,0x1c
  11e3d3:	fa                   	cli    
  11e3d4:	a1 04 d0 11 00       	mov    eax,ds:0x11d004
  11e3d9:	05 00 00 20 00       	add    eax,0x200000
  11e3de:	89 44 24 0c          	mov    DWORD PTR [esp+0xc],eax
  11e3e2:	8b 64 24 0c          	mov    esp,DWORD PTR [esp+0xc]
  11e3e6:	8b 6c 24 0c          	mov    ebp,DWORD PTR [esp+0xc]
  11e3ea:	a1 a8 da 13 00       	mov    eax,ds:0x13daa8
  11e3ef:	89 1d 00 d0 11 00    	mov    DWORD PTR ds:0x11d000,ebx
  11e3f5:	8d 90 00 00 20 00    	lea    edx,[eax+0x200000]
  11e3fb:	a3 04 d0 11 00       	mov    ds:0x11d004,eax
  11e400:	89 15 08 d0 11 00    	mov    DWORD PTR ds:0x11d008,edx
  11e406:	8d 90 00 00 a0 02    	lea    edx,[eax+0x2a00000]
  11e40c:	89 15 0c d0 11 00    	mov    DWORD PTR ds:0x11d00c,edx
  11e412:	8d 90 00 00 20 05    	lea    edx,[eax+0x5200000]
  11e418:	05 00 00 40 05       	add    eax,0x5400000
  11e41d:	a3 14 d0 11 00       	mov    ds:0x11d014,eax
  11e422:	89 15 10 d0 11 00    	mov    DWORD PTR ds:0x11d010,edx
  11e428:	e8 d3 fb ff ff       	call   11e000 <__init>
  11e42d:	66 90                	xchg   ax,ax
  11e42f:	90                   	nop

0011e430 <_ZN6system6kernel3gfx15vbe_buffer_initEmm>:
  11e430:	55                   	push   ebp
  11e431:	57                   	push   edi
  11e432:	56                   	push   esi
  11e433:	53                   	push   ebx
  11e434:	83 ec 18             	sub    esp,0x18
  11e437:	8b 7c 24 34          	mov    edi,DWORD PTR [esp+0x34]
  11e43b:	8b 6c 24 30          	mov    ebp,DWORD PTR [esp+0x30]
  11e43f:	8b 5c 24 2c          	mov    ebx,DWORD PTR [esp+0x2c]
  11e443:	8d 34 bd 00 00 00 00 	lea    esi,[edi*4+0x0]
  11e44a:	0f af f5             	imul   esi,ebp
  11e44d:	56                   	push   esi
  11e44e:	e8 cd b4 01 00       	call   139920 <alloc>
  11e453:	89 6b 04             	mov    DWORD PTR [ebx+0x4],ebp
  11e456:	89 03                	mov    DWORD PTR [ebx],eax
  11e458:	89 d8                	mov    eax,ebx
  11e45a:	89 7b 08             	mov    DWORD PTR [ebx+0x8],edi
  11e45d:	89 73 0c             	mov    DWORD PTR [ebx+0xc],esi
  11e460:	83 c4 1c             	add    esp,0x1c
  11e463:	5b                   	pop    ebx
  11e464:	5e                   	pop    esi
  11e465:	5f                   	pop    edi
  11e466:	5d                   	pop    ebp
  11e467:	c2 04 00             	ret    0x4
  11e46a:	66 90                	xchg   ax,ax
  11e46c:	66 90                	xchg   ax,ax
  11e46e:	66 90                	xchg   ax,ax

0011e470 <sprintf>:
  11e470:	f3 c3                	repz ret 
  11e472:	8d b4 26 00 00 00 00 	lea    esi,[esi+eiz*1+0x0]
  11e479:	8d bc 27 00 00 00 00 	lea    edi,[edi+eiz*1+0x0]

0011e480 <vsprintf>:
  11e480:	f3 c3                	repz ret 
  11e482:	66 90                	xchg   ax,ax
  11e484:	66 90                	xchg   ax,ax
  11e486:	66 90                	xchg   ax,ax
  11e488:	66 90                	xchg   ax,ax
  11e48a:	66 90                	xchg   ax,ax
  11e48c:	66 90                	xchg   ax,ax
  11e48e:	66 90                	xchg   ax,ax

0011e490 <_ZN6system4core2io3out6renderEv.part.3>:
  11e490:	55                   	push   ebp
  11e491:	57                   	push   edi
  11e492:	56                   	push   esi
  11e493:	53                   	push   ebx
  11e494:	89 c3                	mov    ebx,eax
  11e496:	83 ec 1c             	sub    esp,0x1c
  11e499:	85 c0                	test   eax,eax
  11e49b:	0f 84 a9 00 00 00    	je     11e54a <_ZN6system4core2io3out6renderEv.part.3+0xba>
  11e4a1:	0f b6 73 13          	movzx  esi,BYTE PTR [ebx+0x13]
  11e4a5:	0f b6 43 12          	movzx  eax,BYTE PTR [ebx+0x12]
  11e4a9:	89 dd                	mov    ebp,ebx
  11e4ab:	66 0f af 73 30       	imul   si,WORD PTR [ebx+0x30]
  11e4b0:	01 c6                	add    esi,eax
  11e4b2:	83 c5 18             	add    ebp,0x18
  11e4b5:	0f 84 8f 01 00 00    	je     11e64a <_ZN6system4core2io3out6renderEv.part.3+0x1ba>
  11e4bb:	83 ec 08             	sub    esp,0x8
  11e4be:	6a 0f                	push   0xf
  11e4c0:	55                   	push   ebp
  11e4c1:	e8 3a bb 01 00       	call   13a000 <_ZN6system3hal7drivers5ports7port8_t5writeEh>
  11e4c6:	83 c4 10             	add    esp,0x10
  11e4c9:	85 ed                	test   ebp,ebp
  11e4cb:	0f 84 63 01 00 00    	je     11e634 <_ZN6system4core2io3out6renderEv.part.3+0x1a4>
  11e4d1:	89 df                	mov    edi,ebx
  11e4d3:	89 f0                	mov    eax,esi
  11e4d5:	83 c7 20             	add    edi,0x20
  11e4d8:	0f b6 c0             	movzx  eax,al
  11e4db:	0f 84 27 01 00 00    	je     11e608 <_ZN6system4core2io3out6renderEv.part.3+0x178>
  11e4e1:	83 ec 08             	sub    esp,0x8
  11e4e4:	50                   	push   eax
  11e4e5:	57                   	push   edi
  11e4e6:	e8 15 bb 01 00       	call   13a000 <_ZN6system3hal7drivers5ports7port8_t5writeEh>
  11e4eb:	83 c4 10             	add    esp,0x10
  11e4ee:	85 ff                	test   edi,edi
  11e4f0:	0f 84 fc 00 00 00    	je     11e5f2 <_ZN6system4core2io3out6renderEv.part.3+0x162>
  11e4f6:	85 ed                	test   ebp,ebp
  11e4f8:	0f 84 d0 00 00 00    	je     11e5ce <_ZN6system4core2io3out6renderEv.part.3+0x13e>
  11e4fe:	83 ec 08             	sub    esp,0x8
  11e501:	6a 0e                	push   0xe
  11e503:	55                   	push   ebp
  11e504:	e8 f7 ba 01 00       	call   13a000 <_ZN6system3hal7drivers5ports7port8_t5writeEh>
  11e509:	83 c4 10             	add    esp,0x10
  11e50c:	85 ed                	test   ebp,ebp
  11e50e:	0f 84 a4 00 00 00    	je     11e5b8 <_ZN6system4core2io3out6renderEv.part.3+0x128>
  11e514:	89 f0                	mov    eax,esi
  11e516:	85 ff                	test   edi,edi
  11e518:	0f b6 f4             	movzx  esi,ah
  11e51b:	74 77                	je     11e594 <_ZN6system4core2io3out6renderEv.part.3+0x104>
  11e51d:	83 ec 08             	sub    esp,0x8
  11e520:	56                   	push   esi
  11e521:	57                   	push   edi
  11e522:	e8 d9 ba 01 00       	call   13a000 <_ZN6system3hal7drivers5ports7port8_t5writeEh>
  11e527:	83 c4 10             	add    esp,0x10
  11e52a:	85 ff                	test   edi,edi
  11e52c:	74 53                	je     11e581 <_ZN6system4core2io3out6renderEv.part.3+0xf1>
  11e52e:	85 db                	test   ebx,ebx
  11e530:	74 2e                	je     11e560 <_ZN6system4core2io3out6renderEv.part.3+0xd0>
  11e532:	83 ec 04             	sub    esp,0x4
  11e535:	ff 33                	push   DWORD PTR [ebx]
  11e537:	ff 73 04             	push   DWORD PTR [ebx+0x4]
  11e53a:	ff 73 2c             	push   DWORD PTR [ebx+0x2c]
  11e53d:	e8 be ac 01 00       	call   139200 <memcpy>
  11e542:	83 c4 2c             	add    esp,0x2c
  11e545:	5b                   	pop    ebx
  11e546:	5e                   	pop    esi
  11e547:	5f                   	pop    edi
  11e548:	5d                   	pop    ebp
  11e549:	c3                   	ret    
  11e54a:	51                   	push   ecx
  11e54b:	51                   	push   ecx
  11e54c:	6a 00                	push   0x0
  11e54e:	68 c0 1e 10 00       	push   0x101ec0
  11e553:	e8 88 a9 01 00       	call   138ee0 <__ubsan_handle_type_mismatch>
  11e558:	83 c4 10             	add    esp,0x10
  11e55b:	e9 41 ff ff ff       	jmp    11e4a1 <_ZN6system4core2io3out6renderEv.part.3+0x11>
  11e560:	50                   	push   eax
  11e561:	50                   	push   eax
  11e562:	6a 00                	push   0x0
  11e564:	68 5c 1d 10 00       	push   0x101d5c
  11e569:	e8 72 a9 01 00       	call   138ee0 <__ubsan_handle_type_mismatch>
  11e56e:	5a                   	pop    edx
  11e56f:	59                   	pop    ecx
  11e570:	6a 00                	push   0x0
  11e572:	68 28 1d 10 00       	push   0x101d28
  11e577:	e8 64 a9 01 00       	call   138ee0 <__ubsan_handle_type_mismatch>
  11e57c:	83 c4 10             	add    esp,0x10
  11e57f:	eb b1                	jmp    11e532 <_ZN6system4core2io3out6renderEv.part.3+0xa2>
  11e581:	56                   	push   esi
  11e582:	56                   	push   esi
  11e583:	6a 00                	push   0x0
  11e585:	68 88 1d 10 00       	push   0x101d88
  11e58a:	e8 51 a9 01 00       	call   138ee0 <__ubsan_handle_type_mismatch>
  11e58f:	83 c4 10             	add    esp,0x10
  11e592:	eb 9a                	jmp    11e52e <_ZN6system4core2io3out6renderEv.part.3+0x9e>
  11e594:	55                   	push   ebp
  11e595:	55                   	push   ebp
  11e596:	6a 00                	push   0x0
  11e598:	68 b8 1d 10 00       	push   0x101db8
  11e59d:	e8 3e a9 01 00       	call   138ee0 <__ubsan_handle_type_mismatch>
  11e5a2:	58                   	pop    eax
  11e5a3:	5a                   	pop    edx
  11e5a4:	6a 00                	push   0x0
  11e5a6:	68 a0 1d 10 00       	push   0x101da0
  11e5ab:	e8 30 a9 01 00       	call   138ee0 <__ubsan_handle_type_mismatch>
  11e5b0:	83 c4 10             	add    esp,0x10
  11e5b3:	e9 65 ff ff ff       	jmp    11e51d <_ZN6system4core2io3out6renderEv.part.3+0x8d>
  11e5b8:	51                   	push   ecx
  11e5b9:	51                   	push   ecx
  11e5ba:	6a 00                	push   0x0
  11e5bc:	68 d0 1d 10 00       	push   0x101dd0
  11e5c1:	e8 1a a9 01 00       	call   138ee0 <__ubsan_handle_type_mismatch>
  11e5c6:	83 c4 10             	add    esp,0x10
  11e5c9:	e9 46 ff ff ff       	jmp    11e514 <_ZN6system4core2io3out6renderEv.part.3+0x84>
  11e5ce:	50                   	push   eax
  11e5cf:	50                   	push   eax
  11e5d0:	6a 00                	push   0x0
  11e5d2:	68 00 1e 10 00       	push   0x101e00
  11e5d7:	e8 04 a9 01 00       	call   138ee0 <__ubsan_handle_type_mismatch>
  11e5dc:	58                   	pop    eax
  11e5dd:	5a                   	pop    edx
  11e5de:	6a 00                	push   0x0
  11e5e0:	68 e8 1d 10 00       	push   0x101de8
  11e5e5:	e8 f6 a8 01 00       	call   138ee0 <__ubsan_handle_type_mismatch>
  11e5ea:	83 c4 10             	add    esp,0x10
  11e5ed:	e9 0c ff ff ff       	jmp    11e4fe <_ZN6system4core2io3out6renderEv.part.3+0x6e>
  11e5f2:	51                   	push   ecx
  11e5f3:	51                   	push   ecx
  11e5f4:	6a 00                	push   0x0
  11e5f6:	68 18 1e 10 00       	push   0x101e18
  11e5fb:	e8 e0 a8 01 00       	call   138ee0 <__ubsan_handle_type_mismatch>
  11e600:	83 c4 10             	add    esp,0x10
  11e603:	e9 ee fe ff ff       	jmp    11e4f6 <_ZN6system4core2io3out6renderEv.part.3+0x66>
  11e608:	89 44 24 0c          	mov    DWORD PTR [esp+0xc],eax
  11e60c:	50                   	push   eax
  11e60d:	50                   	push   eax
  11e60e:	6a 00                	push   0x0
  11e610:	68 48 1e 10 00       	push   0x101e48
  11e615:	e8 c6 a8 01 00       	call   138ee0 <__ubsan_handle_type_mismatch>
  11e61a:	58                   	pop    eax
  11e61b:	5a                   	pop    edx
  11e61c:	6a 00                	push   0x0
  11e61e:	68 30 1e 10 00       	push   0x101e30
  11e623:	e8 b8 a8 01 00       	call   138ee0 <__ubsan_handle_type_mismatch>
  11e628:	83 c4 10             	add    esp,0x10
  11e62b:	8b 44 24 0c          	mov    eax,DWORD PTR [esp+0xc]
  11e62f:	e9 ad fe ff ff       	jmp    11e4e1 <_ZN6system4core2io3out6renderEv.part.3+0x51>
  11e634:	51                   	push   ecx
  11e635:	51                   	push   ecx
  11e636:	6a 00                	push   0x0
  11e638:	68 60 1e 10 00       	push   0x101e60
  11e63d:	e8 9e a8 01 00       	call   138ee0 <__ubsan_handle_type_mismatch>
  11e642:	83 c4 10             	add    esp,0x10
  11e645:	e9 87 fe ff ff       	jmp    11e4d1 <_ZN6system4core2io3out6renderEv.part.3+0x41>
  11e64a:	57                   	push   edi
  11e64b:	57                   	push   edi
  11e64c:	6a 00                	push   0x0
  11e64e:	68 90 1e 10 00       	push   0x101e90
  11e653:	e8 88 a8 01 00       	call   138ee0 <__ubsan_handle_type_mismatch>
  11e658:	58                   	pop    eax
  11e659:	5a                   	pop    edx
  11e65a:	6a 00                	push   0x0
  11e65c:	68 78 1e 10 00       	push   0x101e78
  11e661:	e8 7a a8 01 00       	call   138ee0 <__ubsan_handle_type_mismatch>
  11e666:	83 c4 10             	add    esp,0x10
  11e669:	e9 4d fe ff ff       	jmp    11e4bb <_ZN6system4core2io3out6renderEv.part.3+0x2b>
  11e66e:	66 90                	xchg   ax,ax

0011e670 <_ZN6system4core2io3outC1Emmmm>:
  11e670:	57                   	push   edi
  11e671:	56                   	push   esi
  11e672:	53                   	push   ebx
  11e673:	8b 5c 24 10          	mov    ebx,DWORD PTR [esp+0x10]
  11e677:	85 db                	test   ebx,ebx
  11e679:	0f 84 a6 00 00 00    	je     11e725 <_ZN6system4core2io3outC1Emmmm+0xb5>
  11e67f:	85 db                	test   ebx,ebx
  11e681:	c7 03 00 00 00 00    	mov    DWORD PTR [ebx],0x0
  11e687:	c7 43 04 00 00 00 00 	mov    DWORD PTR [ebx+0x4],0x0
  11e68e:	c7 43 08 00 00 00 00 	mov    DWORD PTR [ebx+0x8],0x0
  11e695:	c6 43 0c 00          	mov    BYTE PTR [ebx+0xc],0x0
  11e699:	0f 84 2a 01 00 00    	je     11e7c9 <_ZN6system4core2io3outC1Emmmm+0x159>
  11e69f:	89 df                	mov    edi,ebx
  11e6a1:	c6 43 10 0f          	mov    BYTE PTR [ebx+0x10],0xf
  11e6a5:	c6 43 11 01          	mov    BYTE PTR [ebx+0x11],0x1
  11e6a9:	83 c7 18             	add    edi,0x18
  11e6ac:	c6 43 16 00          	mov    BYTE PTR [ebx+0x16],0x0
  11e6b0:	0f 84 e1 00 00 00    	je     11e797 <_ZN6system4core2io3outC1Emmmm+0x127>
  11e6b6:	89 de                	mov    esi,ebx
  11e6b8:	b8 d4 03 00 00       	mov    eax,0x3d4
  11e6bd:	c7 43 1c 02 00 00 00 	mov    DWORD PTR [ebx+0x1c],0x2
  11e6c4:	83 c6 20             	add    esi,0x20
  11e6c7:	66 89 43 18          	mov    WORD PTR [ebx+0x18],ax
  11e6cb:	0f 84 94 00 00 00    	je     11e765 <_ZN6system4core2io3outC1Emmmm+0xf5>
  11e6d1:	83 ec 08             	sub    esp,0x8
  11e6d4:	b8 d5 03 00 00       	mov    eax,0x3d5
  11e6d9:	c7 43 24 02 00 00 00 	mov    DWORD PTR [ebx+0x24],0x2
  11e6e0:	66 89 43 20          	mov    WORD PTR [ebx+0x20],ax
  11e6e4:	6a 09                	push   0x9
  11e6e6:	57                   	push   edi
  11e6e7:	e8 14 b9 01 00       	call   13a000 <_ZN6system3hal7drivers5ports7port8_t5writeEh>
  11e6ec:	5a                   	pop    edx
  11e6ed:	59                   	pop    ecx
  11e6ee:	6a 0f                	push   0xf
  11e6f0:	56                   	push   esi
  11e6f1:	e8 0a b9 01 00       	call   13a000 <_ZN6system3hal7drivers5ports7port8_t5writeEh>
  11e6f6:	5b                   	pop    ebx
  11e6f7:	58                   	pop    eax
  11e6f8:	6a 0b                	push   0xb
  11e6fa:	57                   	push   edi
  11e6fb:	e8 00 b9 01 00       	call   13a000 <_ZN6system3hal7drivers5ports7port8_t5writeEh>
  11e700:	58                   	pop    eax
  11e701:	5a                   	pop    edx
  11e702:	6a 0f                	push   0xf
  11e704:	56                   	push   esi
  11e705:	e8 f6 b8 01 00       	call   13a000 <_ZN6system3hal7drivers5ports7port8_t5writeEh>
  11e70a:	59                   	pop    ecx
  11e70b:	5b                   	pop    ebx
  11e70c:	6a 0a                	push   0xa
  11e70e:	57                   	push   edi
  11e70f:	e8 ec b8 01 00       	call   13a000 <_ZN6system3hal7drivers5ports7port8_t5writeEh>
  11e714:	5f                   	pop    edi
  11e715:	58                   	pop    eax
  11e716:	6a 0e                	push   0xe
  11e718:	56                   	push   esi
  11e719:	e8 e2 b8 01 00       	call   13a000 <_ZN6system3hal7drivers5ports7port8_t5writeEh>
  11e71e:	83 c4 10             	add    esp,0x10
  11e721:	5b                   	pop    ebx
  11e722:	5e                   	pop    esi
  11e723:	5f                   	pop    edi
  11e724:	c3                   	ret    
  11e725:	50                   	push   eax
  11e726:	50                   	push   eax
  11e727:	6a 00                	push   0x0
  11e729:	68 f8 1c 10 00       	push   0x101cf8
  11e72e:	e8 ad a7 01 00       	call   138ee0 <__ubsan_handle_type_mismatch>
  11e733:	58                   	pop    eax
  11e734:	5a                   	pop    edx
  11e735:	6a 00                	push   0x0
  11e737:	68 e0 1c 10 00       	push   0x101ce0
  11e73c:	e8 9f a7 01 00       	call   138ee0 <__ubsan_handle_type_mismatch>
  11e741:	59                   	pop    ecx
  11e742:	5e                   	pop    esi
  11e743:	6a 00                	push   0x0
  11e745:	68 b0 1c 10 00       	push   0x101cb0
  11e74a:	e8 91 a7 01 00       	call   138ee0 <__ubsan_handle_type_mismatch>
  11e74f:	5f                   	pop    edi
  11e750:	58                   	pop    eax
  11e751:	6a 00                	push   0x0
  11e753:	68 98 1c 10 00       	push   0x101c98
  11e758:	e8 83 a7 01 00       	call   138ee0 <__ubsan_handle_type_mismatch>
  11e75d:	83 c4 10             	add    esp,0x10
  11e760:	e9 1a ff ff ff       	jmp    11e67f <_ZN6system4core2io3outC1Emmmm+0xf>
  11e765:	50                   	push   eax
  11e766:	50                   	push   eax
  11e767:	6a 00                	push   0x0
  11e769:	68 08 1c 10 00       	push   0x101c08
  11e76e:	e8 6d a7 01 00       	call   138ee0 <__ubsan_handle_type_mismatch>
  11e773:	58                   	pop    eax
  11e774:	5a                   	pop    edx
  11e775:	6a 00                	push   0x0
  11e777:	68 f0 1b 10 00       	push   0x101bf0
  11e77c:	e8 5f a7 01 00       	call   138ee0 <__ubsan_handle_type_mismatch>
  11e781:	59                   	pop    ecx
  11e782:	58                   	pop    eax
  11e783:	6a 00                	push   0x0
  11e785:	68 d8 1b 10 00       	push   0x101bd8
  11e78a:	e8 51 a7 01 00       	call   138ee0 <__ubsan_handle_type_mismatch>
  11e78f:	83 c4 10             	add    esp,0x10
  11e792:	e9 3a ff ff ff       	jmp    11e6d1 <_ZN6system4core2io3outC1Emmmm+0x61>
  11e797:	50                   	push   eax
  11e798:	50                   	push   eax
  11e799:	6a 00                	push   0x0
  11e79b:	68 68 1c 10 00       	push   0x101c68
  11e7a0:	e8 3b a7 01 00       	call   138ee0 <__ubsan_handle_type_mismatch>
  11e7a5:	58                   	pop    eax
  11e7a6:	5a                   	pop    edx
  11e7a7:	6a 00                	push   0x0
  11e7a9:	68 38 1c 10 00       	push   0x101c38
  11e7ae:	e8 2d a7 01 00       	call   138ee0 <__ubsan_handle_type_mismatch>
  11e7b3:	59                   	pop    ecx
  11e7b4:	5e                   	pop    esi
  11e7b5:	6a 00                	push   0x0
  11e7b7:	68 20 1c 10 00       	push   0x101c20
  11e7bc:	e8 1f a7 01 00       	call   138ee0 <__ubsan_handle_type_mismatch>
  11e7c1:	83 c4 10             	add    esp,0x10
  11e7c4:	e9 ed fe ff ff       	jmp    11e6b6 <_ZN6system4core2io3outC1Emmmm+0x46>
  11e7c9:	57                   	push   edi
  11e7ca:	57                   	push   edi
  11e7cb:	6a 00                	push   0x0
  11e7cd:	68 80 1c 10 00       	push   0x101c80
  11e7d2:	e8 09 a7 01 00       	call   138ee0 <__ubsan_handle_type_mismatch>
  11e7d7:	83 c4 10             	add    esp,0x10
  11e7da:	e9 c0 fe ff ff       	jmp    11e69f <_ZN6system4core2io3outC1Emmmm+0x2f>
  11e7df:	90                   	nop

0011e7e0 <_ZN6system4core2io3out5cleanEv>:
  11e7e0:	55                   	push   ebp
  11e7e1:	57                   	push   edi
  11e7e2:	56                   	push   esi
  11e7e3:	53                   	push   ebx
  11e7e4:	83 ec 1c             	sub    esp,0x1c
  11e7e7:	8b 74 24 30          	mov    esi,DWORD PTR [esp+0x30]
  11e7eb:	85 f6                	test   esi,esi
  11e7ed:	0f 84 9c 02 00 00    	je     11ea8f <_ZN6system4core2io3out5cleanEv+0x2af>
  11e7f3:	0f b6 6e 15          	movzx  ebp,BYTE PTR [esi+0x15]
  11e7f7:	0f b6 4e 14          	movzx  ecx,BYTE PTR [esi+0x14]
  11e7fb:	89 e8                	mov    eax,ebp
  11e7fd:	89 ca                	mov    edx,ecx
  11e7ff:	0f af 6e 30          	imul   ebp,DWORD PTR [esi+0x30]
  11e803:	01 cd                	add    ebp,ecx
  11e805:	85 f6                	test   esi,esi
  11e807:	89 eb                	mov    ebx,ebp
  11e809:	0f 84 ca 01 00 00    	je     11e9d9 <_ZN6system4core2io3out5cleanEv+0x1f9>
  11e80f:	8b 3e                	mov    edi,DWORD PTR [esi]
  11e811:	39 fd                	cmp    ebp,edi
  11e813:	0f 82 93 00 00 00    	jb     11e8ac <_ZN6system4core2io3out5cleanEv+0xcc>
  11e819:	e9 7a 01 00 00       	jmp    11e998 <_ZN6system4core2io3out5cleanEv+0x1b8>
  11e81e:	66 90                	xchg   ax,ax
  11e820:	8b 56 04             	mov    edx,DWORD PTR [esi+0x4]
  11e823:	8d 3c 42             	lea    edi,[edx+eax*2]
  11e826:	85 ff                	test   edi,edi
  11e828:	0f 84 95 01 00 00    	je     11e9c3 <_ZN6system4core2io3out5cleanEv+0x1e3>
  11e82e:	83 e5 0f             	and    ebp,0xf
  11e831:	85 ff                	test   edi,edi
  11e833:	0f 84 f5 01 00 00    	je     11ea2e <_ZN6system4core2io3out5cleanEv+0x24e>
  11e839:	0f b6 47 01          	movzx  eax,BYTE PTR [edi+0x1]
  11e83d:	c1 e5 04             	shl    ebp,0x4
  11e840:	83 e0 0f             	and    eax,0xf
  11e843:	09 e8                	or     eax,ebp
  11e845:	85 db                	test   ebx,ebx
  11e847:	88 47 01             	mov    BYTE PTR [edi+0x1],al
  11e84a:	8b 3e                	mov    edi,DWORD PTR [esi]
  11e84c:	0f b6 4e 10          	movzx  ecx,BYTE PTR [esi+0x10]
  11e850:	8d 14 1f             	lea    edx,[edi+ebx*1]
  11e853:	0f 49 d3             	cmovns edx,ebx
  11e856:	39 d7                	cmp    edi,edx
  11e858:	0f 86 f2 00 00 00    	jbe    11e950 <_ZN6system4core2io3out5cleanEv+0x170>
  11e85e:	8b 46 04             	mov    eax,DWORD PTR [esi+0x4]
  11e861:	8d 2c 50             	lea    ebp,[eax+edx*2]
  11e864:	85 ed                	test   ebp,ebp
  11e866:	0f 84 a3 01 00 00    	je     11ea0f <_ZN6system4core2io3out5cleanEv+0x22f>
  11e86c:	83 e1 0f             	and    ecx,0xf
  11e86f:	85 ed                	test   ebp,ebp
  11e871:	0f 84 e3 01 00 00    	je     11ea5a <_ZN6system4core2io3out5cleanEv+0x27a>
  11e877:	0f b6 45 01          	movzx  eax,BYTE PTR [ebp+0x1]
  11e87b:	83 e0 f0             	and    eax,0xfffffff0
  11e87e:	09 c8                	or     eax,ecx
  11e880:	85 db                	test   ebx,ebx
  11e882:	88 45 01             	mov    BYTE PTR [ebp+0x1],al
  11e885:	8d 04 1f             	lea    eax,[edi+ebx*1]
  11e888:	0f 49 c3             	cmovns eax,ebx
  11e88b:	39 c7                	cmp    edi,eax
  11e88d:	76 71                	jbe    11e900 <_ZN6system4core2io3out5cleanEv+0x120>
  11e88f:	8b 56 04             	mov    edx,DWORD PTR [esi+0x4]
  11e892:	8d 2c 42             	lea    ebp,[edx+eax*2]
  11e895:	85 ed                	test   ebp,ebp
  11e897:	0f 84 a7 01 00 00    	je     11ea44 <_ZN6system4core2io3out5cleanEv+0x264>
  11e89d:	83 c3 01             	add    ebx,0x1
  11e8a0:	c6 45 00 00          	mov    BYTE PTR [ebp+0x0],0x0
  11e8a4:	39 fb                	cmp    ebx,edi
  11e8a6:	0f 83 e4 00 00 00    	jae    11e990 <_ZN6system4core2io3out5cleanEv+0x1b0>
  11e8ac:	8d 04 1f             	lea    eax,[edi+ebx*1]
  11e8af:	85 db                	test   ebx,ebx
  11e8b1:	0f b6 6e 11          	movzx  ebp,BYTE PTR [esi+0x11]
  11e8b5:	0f 49 c3             	cmovns eax,ebx
  11e8b8:	39 c7                	cmp    edi,eax
  11e8ba:	0f 87 60 ff ff ff    	ja     11e820 <_ZN6system4core2io3out5cleanEv+0x40>
  11e8c0:	83 ec 0c             	sub    esp,0xc
  11e8c3:	68 12 e1 10 00       	push   0x10e112
  11e8c8:	e8 03 ed 00 00       	call   12d5d0 <dprint_error>
  11e8cd:	83 c4 0c             	add    esp,0xc
  11e8d0:	6a 02                	push   0x2
  11e8d2:	6a 00                	push   0x0
  11e8d4:	ff 76 08             	push   DWORD PTR [esi+0x8]
  11e8d7:	e8 c4 aa 01 00       	call   1393a0 <memset>
  11e8dc:	8b 7e 08             	mov    edi,DWORD PTR [esi+0x8]
  11e8df:	83 c4 10             	add    esp,0x10
  11e8e2:	85 ff                	test   edi,edi
  11e8e4:	0f 85 44 ff ff ff    	jne    11e82e <_ZN6system4core2io3out5cleanEv+0x4e>
  11e8ea:	50                   	push   eax
  11e8eb:	50                   	push   eax
  11e8ec:	6a 00                	push   0x0
  11e8ee:	68 4c 1b 10 00       	push   0x101b4c
  11e8f3:	e8 e8 a5 01 00       	call   138ee0 <__ubsan_handle_type_mismatch>
  11e8f8:	83 c4 10             	add    esp,0x10
  11e8fb:	e9 2e ff ff ff       	jmp    11e82e <_ZN6system4core2io3out5cleanEv+0x4e>
  11e900:	83 ec 0c             	sub    esp,0xc
  11e903:	68 12 e1 10 00       	push   0x10e112
  11e908:	e8 c3 ec 00 00       	call   12d5d0 <dprint_error>
  11e90d:	83 c4 0c             	add    esp,0xc
  11e910:	6a 02                	push   0x2
  11e912:	6a 00                	push   0x0
  11e914:	ff 76 08             	push   DWORD PTR [esi+0x8]
  11e917:	e8 84 aa 01 00       	call   1393a0 <memset>
  11e91c:	8b 6e 08             	mov    ebp,DWORD PTR [esi+0x8]
  11e91f:	83 c4 10             	add    esp,0x10
  11e922:	85 ed                	test   ebp,ebp
  11e924:	0f 84 4f 01 00 00    	je     11ea79 <_ZN6system4core2io3out5cleanEv+0x299>
  11e92a:	85 ed                	test   ebp,ebp
  11e92c:	8b 3e                	mov    edi,DWORD PTR [esi]
  11e92e:	0f 85 69 ff ff ff    	jne    11e89d <_ZN6system4core2io3out5cleanEv+0xbd>
  11e934:	50                   	push   eax
  11e935:	50                   	push   eax
  11e936:	6a 00                	push   0x0
  11e938:	68 8c 1a 10 00       	push   0x101a8c
  11e93d:	e8 9e a5 01 00       	call   138ee0 <__ubsan_handle_type_mismatch>
  11e942:	83 c4 10             	add    esp,0x10
  11e945:	e9 53 ff ff ff       	jmp    11e89d <_ZN6system4core2io3out5cleanEv+0xbd>
  11e94a:	8d b6 00 00 00 00    	lea    esi,[esi+0x0]
  11e950:	88 4c 24 0e          	mov    BYTE PTR [esp+0xe],cl
  11e954:	83 ec 0c             	sub    esp,0xc
  11e957:	68 12 e1 10 00       	push   0x10e112
  11e95c:	e8 6f ec 00 00       	call   12d5d0 <dprint_error>
  11e961:	83 c4 0c             	add    esp,0xc
  11e964:	6a 02                	push   0x2
  11e966:	6a 00                	push   0x0
  11e968:	ff 76 08             	push   DWORD PTR [esi+0x8]
  11e96b:	e8 30 aa 01 00       	call   1393a0 <memset>
  11e970:	8b 6e 08             	mov    ebp,DWORD PTR [esi+0x8]
  11e973:	83 c4 10             	add    esp,0x10
  11e976:	0f b6 4c 24 0e       	movzx  ecx,BYTE PTR [esp+0xe]
  11e97b:	85 ed                	test   ebp,ebp
  11e97d:	74 27                	je     11e9a6 <_ZN6system4core2io3out5cleanEv+0x1c6>
  11e97f:	8b 3e                	mov    edi,DWORD PTR [esi]
  11e981:	e9 e6 fe ff ff       	jmp    11e86c <_ZN6system4core2io3out5cleanEv+0x8c>
  11e986:	8d 76 00             	lea    esi,[esi+0x0]
  11e989:	8d bc 27 00 00 00 00 	lea    edi,[edi+eiz*1+0x0]
  11e990:	0f b6 56 14          	movzx  edx,BYTE PTR [esi+0x14]
  11e994:	0f b6 46 15          	movzx  eax,BYTE PTR [esi+0x15]
  11e998:	88 56 12             	mov    BYTE PTR [esi+0x12],dl
  11e99b:	88 46 13             	mov    BYTE PTR [esi+0x13],al
  11e99e:	83 c4 1c             	add    esp,0x1c
  11e9a1:	5b                   	pop    ebx
  11e9a2:	5e                   	pop    esi
  11e9a3:	5f                   	pop    edi
  11e9a4:	5d                   	pop    ebp
  11e9a5:	c3                   	ret    
  11e9a6:	50                   	push   eax
  11e9a7:	50                   	push   eax
  11e9a8:	6a 00                	push   0x0
  11e9aa:	68 04 1b 10 00       	push   0x101b04
  11e9af:	e8 2c a5 01 00       	call   138ee0 <__ubsan_handle_type_mismatch>
  11e9b4:	83 c4 10             	add    esp,0x10
  11e9b7:	0f b6 4c 24 0e       	movzx  ecx,BYTE PTR [esp+0xe]
  11e9bc:	8b 3e                	mov    edi,DWORD PTR [esi]
  11e9be:	e9 a9 fe ff ff       	jmp    11e86c <_ZN6system4core2io3out5cleanEv+0x8c>
  11e9c3:	50                   	push   eax
  11e9c4:	50                   	push   eax
  11e9c5:	6a 00                	push   0x0
  11e9c7:	68 34 1b 10 00       	push   0x101b34
  11e9cc:	e8 0f a5 01 00       	call   138ee0 <__ubsan_handle_type_mismatch>
  11e9d1:	83 c4 10             	add    esp,0x10
  11e9d4:	e9 55 fe ff ff       	jmp    11e82e <_ZN6system4core2io3out5cleanEv+0x4e>
  11e9d9:	88 44 24 0f          	mov    BYTE PTR [esp+0xf],al
  11e9dd:	88 4c 24 0e          	mov    BYTE PTR [esp+0xe],cl
  11e9e1:	52                   	push   edx
  11e9e2:	52                   	push   edx
  11e9e3:	6a 00                	push   0x0
  11e9e5:	68 90 1b 10 00       	push   0x101b90
  11e9ea:	e8 f1 a4 01 00       	call   138ee0 <__ubsan_handle_type_mismatch>
  11e9ef:	59                   	pop    ecx
  11e9f0:	5f                   	pop    edi
  11e9f1:	6a 00                	push   0x0
  11e9f3:	68 78 1b 10 00       	push   0x101b78
  11e9f8:	e8 e3 a4 01 00       	call   138ee0 <__ubsan_handle_type_mismatch>
  11e9fd:	83 c4 10             	add    esp,0x10
  11ea00:	0f b6 44 24 0f       	movzx  eax,BYTE PTR [esp+0xf]
  11ea05:	0f b6 54 24 0e       	movzx  edx,BYTE PTR [esp+0xe]
  11ea0a:	e9 00 fe ff ff       	jmp    11e80f <_ZN6system4core2io3out5cleanEv+0x2f>
  11ea0f:	88 4c 24 0e          	mov    BYTE PTR [esp+0xe],cl
  11ea13:	50                   	push   eax
  11ea14:	50                   	push   eax
  11ea15:	6a 00                	push   0x0
  11ea17:	68 ec 1a 10 00       	push   0x101aec
  11ea1c:	e8 bf a4 01 00       	call   138ee0 <__ubsan_handle_type_mismatch>
  11ea21:	83 c4 10             	add    esp,0x10
  11ea24:	0f b6 4c 24 0e       	movzx  ecx,BYTE PTR [esp+0xe]
  11ea29:	e9 3e fe ff ff       	jmp    11e86c <_ZN6system4core2io3out5cleanEv+0x8c>
  11ea2e:	50                   	push   eax
  11ea2f:	50                   	push   eax
  11ea30:	6a 00                	push   0x0
  11ea32:	68 1c 1b 10 00       	push   0x101b1c
  11ea37:	e8 a4 a4 01 00       	call   138ee0 <__ubsan_handle_type_mismatch>
  11ea3c:	83 c4 10             	add    esp,0x10
  11ea3f:	e9 f5 fd ff ff       	jmp    11e839 <_ZN6system4core2io3out5cleanEv+0x59>
  11ea44:	52                   	push   edx
  11ea45:	52                   	push   edx
  11ea46:	6a 00                	push   0x0
  11ea48:	68 a4 1a 10 00       	push   0x101aa4
  11ea4d:	e8 8e a4 01 00       	call   138ee0 <__ubsan_handle_type_mismatch>
  11ea52:	83 c4 10             	add    esp,0x10
  11ea55:	e9 da fe ff ff       	jmp    11e934 <_ZN6system4core2io3out5cleanEv+0x154>
  11ea5a:	88 4c 24 0e          	mov    BYTE PTR [esp+0xe],cl
  11ea5e:	50                   	push   eax
  11ea5f:	50                   	push   eax
  11ea60:	6a 00                	push   0x0
  11ea62:	68 d4 1a 10 00       	push   0x101ad4
  11ea67:	e8 74 a4 01 00       	call   138ee0 <__ubsan_handle_type_mismatch>
  11ea6c:	83 c4 10             	add    esp,0x10
  11ea6f:	0f b6 4c 24 0e       	movzx  ecx,BYTE PTR [esp+0xe]
  11ea74:	e9 fe fd ff ff       	jmp    11e877 <_ZN6system4core2io3out5cleanEv+0x97>
  11ea79:	51                   	push   ecx
  11ea7a:	51                   	push   ecx
  11ea7b:	6a 00                	push   0x0
  11ea7d:	68 bc 1a 10 00       	push   0x101abc
  11ea82:	e8 59 a4 01 00       	call   138ee0 <__ubsan_handle_type_mismatch>
  11ea87:	83 c4 10             	add    esp,0x10
  11ea8a:	e9 9b fe ff ff       	jmp    11e92a <_ZN6system4core2io3out5cleanEv+0x14a>
  11ea8f:	55                   	push   ebp
  11ea90:	55                   	push   ebp
  11ea91:	6a 00                	push   0x0
  11ea93:	68 c0 1b 10 00       	push   0x101bc0
  11ea98:	e8 43 a4 01 00       	call   138ee0 <__ubsan_handle_type_mismatch>
  11ea9d:	58                   	pop    eax
  11ea9e:	5a                   	pop    edx
  11ea9f:	6a 00                	push   0x0
  11eaa1:	68 a8 1b 10 00       	push   0x101ba8
  11eaa6:	e8 35 a4 01 00       	call   138ee0 <__ubsan_handle_type_mismatch>
  11eaab:	83 c4 10             	add    esp,0x10
  11eaae:	e9 40 fd ff ff       	jmp    11e7f3 <_ZN6system4core2io3out5cleanEv+0x13>
  11eab3:	90                   	nop
  11eab4:	8d b6 00 00 00 00    	lea    esi,[esi+0x0]
  11eaba:	8d bf 00 00 00 00    	lea    edi,[edi+0x0]

0011eac0 <_ZN6system4core2io3out5cleanENS1_5colorES3_>:
  11eac0:	55                   	push   ebp
  11eac1:	57                   	push   edi
  11eac2:	56                   	push   esi
  11eac3:	53                   	push   ebx
  11eac4:	83 ec 1c             	sub    esp,0x1c
  11eac7:	8b 7c 24 30          	mov    edi,DWORD PTR [esp+0x30]
  11eacb:	8b 44 24 38          	mov    eax,DWORD PTR [esp+0x38]
  11eacf:	8b 54 24 34          	mov    edx,DWORD PTR [esp+0x34]
  11ead3:	85 ff                	test   edi,edi
  11ead5:	89 04 24             	mov    DWORD PTR [esp],eax
  11ead8:	0f 84 13 02 00 00    	je     11ecf1 <_ZN6system4core2io3out5cleanENS1_5colorES3_+0x231>
  11eade:	0f b6 6f 15          	movzx  ebp,BYTE PTR [edi+0x15]
  11eae2:	0f b6 5f 14          	movzx  ebx,BYTE PTR [edi+0x14]
  11eae6:	89 e8                	mov    eax,ebp
  11eae8:	89 d9                	mov    ecx,ebx
  11eaea:	0f af 6f 30          	imul   ebp,DWORD PTR [edi+0x30]
  11eaee:	01 dd                	add    ebp,ebx
  11eaf0:	85 ff                	test   edi,edi
  11eaf2:	89 eb                	mov    ebx,ebp
  11eaf4:	0f 84 57 02 00 00    	je     11ed51 <_ZN6system4core2io3out5cleanENS1_5colorES3_+0x291>
  11eafa:	8b 37                	mov    esi,DWORD PTR [edi]
  11eafc:	39 f5                	cmp    ebp,esi
  11eafe:	0f 83 a6 01 00 00    	jae    11ecaa <_ZN6system4core2io3out5cleanENS1_5colorES3_+0x1ea>
  11eb04:	0f b6 04 24          	movzx  eax,BYTE PTR [esp]
  11eb08:	89 d5                	mov    ebp,edx
  11eb0a:	83 e5 0f             	and    ebp,0xf
  11eb0d:	c1 e0 04             	shl    eax,0x4
  11eb10:	88 04 24             	mov    BYTE PTR [esp],al
  11eb13:	89 e8                	mov    eax,ebp
  11eb15:	89 fd                	mov    ebp,edi
  11eb17:	89 c7                	mov    edi,eax
  11eb19:	eb 75                	jmp    11eb90 <_ZN6system4core2io3out5cleanENS1_5colorES3_+0xd0>
  11eb1b:	90                   	nop
  11eb1c:	8d 74 26 00          	lea    esi,[esi+eiz*1+0x0]
  11eb20:	8b 4d 04             	mov    ecx,DWORD PTR [ebp+0x4]
  11eb23:	8d 34 41             	lea    esi,[ecx+eax*2]
  11eb26:	85 f6                	test   esi,esi
  11eb28:	0f 84 0d 02 00 00    	je     11ed3b <_ZN6system4core2io3out5cleanENS1_5colorES3_+0x27b>
  11eb2e:	0f b6 46 01          	movzx  eax,BYTE PTR [esi+0x1]
  11eb32:	83 e0 0f             	and    eax,0xf
  11eb35:	0a 04 24             	or     al,BYTE PTR [esp]
  11eb38:	85 db                	test   ebx,ebx
  11eb3a:	88 46 01             	mov    BYTE PTR [esi+0x1],al
  11eb3d:	8b 75 00             	mov    esi,DWORD PTR [ebp+0x0]
  11eb40:	8d 04 1e             	lea    eax,[esi+ebx*1]
  11eb43:	0f 49 c3             	cmovns eax,ebx
  11eb46:	39 c6                	cmp    esi,eax
  11eb48:	0f 86 02 01 00 00    	jbe    11ec50 <_ZN6system4core2io3out5cleanENS1_5colorES3_+0x190>
  11eb4e:	8b 4d 04             	mov    ecx,DWORD PTR [ebp+0x4]
  11eb51:	8d 0c 41             	lea    ecx,[ecx+eax*2]
  11eb54:	85 c9                	test   ecx,ecx
  11eb56:	0f 84 c1 01 00 00    	je     11ed1d <_ZN6system4core2io3out5cleanENS1_5colorES3_+0x25d>
  11eb5c:	0f b6 41 01          	movzx  eax,BYTE PTR [ecx+0x1]
  11eb60:	83 e0 f0             	and    eax,0xfffffff0
  11eb63:	09 f8                	or     eax,edi
  11eb65:	85 db                	test   ebx,ebx
  11eb67:	88 41 01             	mov    BYTE PTR [ecx+0x1],al
  11eb6a:	8d 04 1e             	lea    eax,[esi+ebx*1]
  11eb6d:	0f 49 c3             	cmovns eax,ebx
  11eb70:	39 c6                	cmp    esi,eax
  11eb72:	76 7c                	jbe    11ebf0 <_ZN6system4core2io3out5cleanENS1_5colorES3_+0x130>
  11eb74:	8b 4d 04             	mov    ecx,DWORD PTR [ebp+0x4]
  11eb77:	8d 04 41             	lea    eax,[ecx+eax*2]
  11eb7a:	85 c0                	test   eax,eax
  11eb7c:	0f 84 0d 02 00 00    	je     11ed8f <_ZN6system4core2io3out5cleanENS1_5colorES3_+0x2cf>
  11eb82:	83 c3 01             	add    ebx,0x1
  11eb85:	c6 00 00             	mov    BYTE PTR [eax],0x0
  11eb88:	39 f3                	cmp    ebx,esi
  11eb8a:	0f 83 10 01 00 00    	jae    11eca0 <_ZN6system4core2io3out5cleanENS1_5colorES3_+0x1e0>
  11eb90:	8d 04 1e             	lea    eax,[esi+ebx*1]
  11eb93:	85 db                	test   ebx,ebx
  11eb95:	0f 49 c3             	cmovns eax,ebx
  11eb98:	39 c6                	cmp    esi,eax
  11eb9a:	77 84                	ja     11eb20 <_ZN6system4core2io3out5cleanENS1_5colorES3_+0x60>
  11eb9c:	83 ec 0c             	sub    esp,0xc
  11eb9f:	68 12 e1 10 00       	push   0x10e112
  11eba4:	e8 27 ea 00 00       	call   12d5d0 <dprint_error>
  11eba9:	83 c4 0c             	add    esp,0xc
  11ebac:	6a 02                	push   0x2
  11ebae:	6a 00                	push   0x0
  11ebb0:	ff 75 08             	push   DWORD PTR [ebp+0x8]
  11ebb3:	e8 e8 a7 01 00       	call   1393a0 <memset>
  11ebb8:	8b 75 08             	mov    esi,DWORD PTR [ebp+0x8]
  11ebbb:	83 c4 10             	add    esp,0x10
  11ebbe:	85 f6                	test   esi,esi
  11ebc0:	0f 85 68 ff ff ff    	jne    11eb2e <_ZN6system4core2io3out5cleanENS1_5colorES3_+0x6e>
  11ebc6:	50                   	push   eax
  11ebc7:	50                   	push   eax
  11ebc8:	6a 00                	push   0x0
  11ebca:	68 14 1a 10 00       	push   0x101a14
  11ebcf:	e8 0c a3 01 00       	call   138ee0 <__ubsan_handle_type_mismatch>
  11ebd4:	83 c4 10             	add    esp,0x10
  11ebd7:	83 ec 08             	sub    esp,0x8
  11ebda:	6a 00                	push   0x0
  11ebdc:	68 e4 19 10 00       	push   0x1019e4
  11ebe1:	e8 fa a2 01 00       	call   138ee0 <__ubsan_handle_type_mismatch>
  11ebe6:	83 c4 10             	add    esp,0x10
  11ebe9:	e9 40 ff ff ff       	jmp    11eb2e <_ZN6system4core2io3out5cleanENS1_5colorES3_+0x6e>
  11ebee:	66 90                	xchg   ax,ax
  11ebf0:	83 ec 0c             	sub    esp,0xc
  11ebf3:	68 12 e1 10 00       	push   0x10e112
  11ebf8:	e8 d3 e9 00 00       	call   12d5d0 <dprint_error>
  11ebfd:	83 c4 0c             	add    esp,0xc
  11ec00:	6a 02                	push   0x2
  11ec02:	6a 00                	push   0x0
  11ec04:	ff 75 08             	push   DWORD PTR [ebp+0x8]
  11ec07:	e8 94 a7 01 00       	call   1393a0 <memset>
  11ec0c:	8b 45 08             	mov    eax,DWORD PTR [ebp+0x8]
  11ec0f:	83 c4 10             	add    esp,0x10
  11ec12:	85 c0                	test   eax,eax
  11ec14:	0f 84 9e 00 00 00    	je     11ecb8 <_ZN6system4core2io3out5cleanENS1_5colorES3_+0x1f8>
  11ec1a:	85 c0                	test   eax,eax
  11ec1c:	8b 75 00             	mov    esi,DWORD PTR [ebp+0x0]
  11ec1f:	0f 85 5d ff ff ff    	jne    11eb82 <_ZN6system4core2io3out5cleanENS1_5colorES3_+0xc2>
  11ec25:	89 44 24 04          	mov    DWORD PTR [esp+0x4],eax
  11ec29:	50                   	push   eax
  11ec2a:	50                   	push   eax
  11ec2b:	6a 00                	push   0x0
  11ec2d:	68 54 19 10 00       	push   0x101954
  11ec32:	e8 a9 a2 01 00       	call   138ee0 <__ubsan_handle_type_mismatch>
  11ec37:	83 c4 10             	add    esp,0x10
  11ec3a:	8b 44 24 04          	mov    eax,DWORD PTR [esp+0x4]
  11ec3e:	e9 3f ff ff ff       	jmp    11eb82 <_ZN6system4core2io3out5cleanENS1_5colorES3_+0xc2>
  11ec43:	8d b6 00 00 00 00    	lea    esi,[esi+0x0]
  11ec49:	8d bc 27 00 00 00 00 	lea    edi,[edi+eiz*1+0x0]
  11ec50:	83 ec 0c             	sub    esp,0xc
  11ec53:	68 12 e1 10 00       	push   0x10e112
  11ec58:	e8 73 e9 00 00       	call   12d5d0 <dprint_error>
  11ec5d:	83 c4 0c             	add    esp,0xc
  11ec60:	6a 02                	push   0x2
  11ec62:	6a 00                	push   0x0
  11ec64:	ff 75 08             	push   DWORD PTR [ebp+0x8]
  11ec67:	e8 34 a7 01 00       	call   1393a0 <memset>
  11ec6c:	8b 4d 08             	mov    ecx,DWORD PTR [ebp+0x8]
  11ec6f:	83 c4 10             	add    esp,0x10
  11ec72:	85 c9                	test   ecx,ecx
  11ec74:	74 60                	je     11ecd6 <_ZN6system4core2io3out5cleanENS1_5colorES3_+0x216>
  11ec76:	85 c9                	test   ecx,ecx
  11ec78:	8b 75 00             	mov    esi,DWORD PTR [ebp+0x0]
  11ec7b:	0f 85 db fe ff ff    	jne    11eb5c <_ZN6system4core2io3out5cleanENS1_5colorES3_+0x9c>
  11ec81:	89 4c 24 04          	mov    DWORD PTR [esp+0x4],ecx
  11ec85:	50                   	push   eax
  11ec86:	50                   	push   eax
  11ec87:	6a 00                	push   0x0
  11ec89:	68 9c 19 10 00       	push   0x10199c
  11ec8e:	e8 4d a2 01 00       	call   138ee0 <__ubsan_handle_type_mismatch>
  11ec93:	83 c4 10             	add    esp,0x10
  11ec96:	8b 4c 24 04          	mov    ecx,DWORD PTR [esp+0x4]
  11ec9a:	e9 bd fe ff ff       	jmp    11eb5c <_ZN6system4core2io3out5cleanENS1_5colorES3_+0x9c>
  11ec9f:	90                   	nop
  11eca0:	0f b6 4d 14          	movzx  ecx,BYTE PTR [ebp+0x14]
  11eca4:	0f b6 45 15          	movzx  eax,BYTE PTR [ebp+0x15]
  11eca8:	89 ef                	mov    edi,ebp
  11ecaa:	88 4f 12             	mov    BYTE PTR [edi+0x12],cl
  11ecad:	88 47 13             	mov    BYTE PTR [edi+0x13],al
  11ecb0:	83 c4 1c             	add    esp,0x1c
  11ecb3:	5b                   	pop    ebx
  11ecb4:	5e                   	pop    esi
  11ecb5:	5f                   	pop    edi
  11ecb6:	5d                   	pop    ebp
  11ecb7:	c3                   	ret    
  11ecb8:	89 44 24 04          	mov    DWORD PTR [esp+0x4],eax
  11ecbc:	51                   	push   ecx
  11ecbd:	51                   	push   ecx
  11ecbe:	6a 00                	push   0x0
  11ecc0:	68 84 19 10 00       	push   0x101984
  11ecc5:	e8 16 a2 01 00       	call   138ee0 <__ubsan_handle_type_mismatch>
  11ecca:	83 c4 10             	add    esp,0x10
  11eccd:	8b 44 24 04          	mov    eax,DWORD PTR [esp+0x4]
  11ecd1:	e9 44 ff ff ff       	jmp    11ec1a <_ZN6system4core2io3out5cleanENS1_5colorES3_+0x15a>
  11ecd6:	89 4c 24 04          	mov    DWORD PTR [esp+0x4],ecx
  11ecda:	50                   	push   eax
  11ecdb:	50                   	push   eax
  11ecdc:	6a 00                	push   0x0
  11ecde:	68 cc 19 10 00       	push   0x1019cc
  11ece3:	e8 f8 a1 01 00       	call   138ee0 <__ubsan_handle_type_mismatch>
  11ece8:	83 c4 10             	add    esp,0x10
  11eceb:	8b 4c 24 04          	mov    ecx,DWORD PTR [esp+0x4]
  11ecef:	eb 85                	jmp    11ec76 <_ZN6system4core2io3out5cleanENS1_5colorES3_+0x1b6>
  11ecf1:	89 54 24 04          	mov    DWORD PTR [esp+0x4],edx
  11ecf5:	53                   	push   ebx
  11ecf6:	53                   	push   ebx
  11ecf7:	6a 00                	push   0x0
  11ecf9:	68 74 1a 10 00       	push   0x101a74
  11ecfe:	e8 dd a1 01 00       	call   138ee0 <__ubsan_handle_type_mismatch>
  11ed03:	5e                   	pop    esi
  11ed04:	5d                   	pop    ebp
  11ed05:	6a 00                	push   0x0
  11ed07:	68 5c 1a 10 00       	push   0x101a5c
  11ed0c:	e8 cf a1 01 00       	call   138ee0 <__ubsan_handle_type_mismatch>
  11ed11:	83 c4 10             	add    esp,0x10
  11ed14:	8b 54 24 04          	mov    edx,DWORD PTR [esp+0x4]
  11ed18:	e9 c1 fd ff ff       	jmp    11eade <_ZN6system4core2io3out5cleanENS1_5colorES3_+0x1e>
  11ed1d:	89 4c 24 04          	mov    DWORD PTR [esp+0x4],ecx
  11ed21:	50                   	push   eax
  11ed22:	50                   	push   eax
  11ed23:	6a 00                	push   0x0
  11ed25:	68 b4 19 10 00       	push   0x1019b4
  11ed2a:	e8 b1 a1 01 00       	call   138ee0 <__ubsan_handle_type_mismatch>
  11ed2f:	83 c4 10             	add    esp,0x10
  11ed32:	8b 4c 24 04          	mov    ecx,DWORD PTR [esp+0x4]
  11ed36:	e9 46 ff ff ff       	jmp    11ec81 <_ZN6system4core2io3out5cleanENS1_5colorES3_+0x1c1>
  11ed3b:	50                   	push   eax
  11ed3c:	50                   	push   eax
  11ed3d:	6a 00                	push   0x0
  11ed3f:	68 fc 19 10 00       	push   0x1019fc
  11ed44:	e8 97 a1 01 00       	call   138ee0 <__ubsan_handle_type_mismatch>
  11ed49:	83 c4 10             	add    esp,0x10
  11ed4c:	e9 86 fe ff ff       	jmp    11ebd7 <_ZN6system4core2io3out5cleanENS1_5colorES3_+0x117>
  11ed51:	88 44 24 0b          	mov    BYTE PTR [esp+0xb],al
  11ed55:	89 54 24 0c          	mov    DWORD PTR [esp+0xc],edx
  11ed59:	88 4c 24 04          	mov    BYTE PTR [esp+0x4],cl
  11ed5d:	50                   	push   eax
  11ed5e:	50                   	push   eax
  11ed5f:	6a 00                	push   0x0
  11ed61:	68 44 1a 10 00       	push   0x101a44
  11ed66:	e8 75 a1 01 00       	call   138ee0 <__ubsan_handle_type_mismatch>
  11ed6b:	5a                   	pop    edx
  11ed6c:	59                   	pop    ecx
  11ed6d:	6a 00                	push   0x0
  11ed6f:	68 2c 1a 10 00       	push   0x101a2c
  11ed74:	e8 67 a1 01 00       	call   138ee0 <__ubsan_handle_type_mismatch>
  11ed79:	83 c4 10             	add    esp,0x10
  11ed7c:	8b 54 24 0c          	mov    edx,DWORD PTR [esp+0xc]
  11ed80:	0f b6 44 24 0b       	movzx  eax,BYTE PTR [esp+0xb]
  11ed85:	0f b6 4c 24 04       	movzx  ecx,BYTE PTR [esp+0x4]
  11ed8a:	e9 6b fd ff ff       	jmp    11eafa <_ZN6system4core2io3out5cleanENS1_5colorES3_+0x3a>
  11ed8f:	89 44 24 04          	mov    DWORD PTR [esp+0x4],eax
  11ed93:	52                   	push   edx
  11ed94:	52                   	push   edx
  11ed95:	6a 00                	push   0x0
  11ed97:	68 6c 19 10 00       	push   0x10196c
  11ed9c:	e8 3f a1 01 00       	call   138ee0 <__ubsan_handle_type_mismatch>
  11eda1:	83 c4 10             	add    esp,0x10
  11eda4:	8b 44 24 04          	mov    eax,DWORD PTR [esp+0x4]
  11eda8:	e9 78 fe ff ff       	jmp    11ec25 <_ZN6system4core2io3out5cleanENS1_5colorES3_+0x165>
  11edad:	90                   	nop
  11edae:	66 90                	xchg   ax,ax

0011edb0 <_ZN6system4core2io3out5cleanENS1_5colorES3_hh>:
  11edb0:	55                   	push   ebp
  11edb1:	57                   	push   edi
  11edb2:	56                   	push   esi
  11edb3:	53                   	push   ebx
  11edb4:	83 ec 1c             	sub    esp,0x1c
  11edb7:	8b 74 24 30          	mov    esi,DWORD PTR [esp+0x30]
  11edbb:	8b 54 24 34          	mov    edx,DWORD PTR [esp+0x34]
  11edbf:	8b 6c 24 38          	mov    ebp,DWORD PTR [esp+0x38]
  11edc3:	0f b6 5c 24 3c       	movzx  ebx,BYTE PTR [esp+0x3c]
  11edc8:	0f b6 7c 24 40       	movzx  edi,BYTE PTR [esp+0x40]
  11edcd:	85 f6                	test   esi,esi
  11edcf:	0f 84 89 02 00 00    	je     11f05e <_ZN6system4core2io3out5cleanENS1_5colorES3_hh+0x2ae>
  11edd5:	8b 46 30             	mov    eax,DWORD PTR [esi+0x30]
  11edd8:	89 f9                	mov    ecx,edi
  11edda:	83 c7 01             	add    edi,0x1
  11eddd:	0f af c8             	imul   ecx,eax
  11ede0:	01 cb                	add    ebx,ecx
  11ede2:	01 c8                	add    eax,ecx
  11ede4:	39 c3                	cmp    ebx,eax
  11ede6:	0f 83 e4 01 00 00    	jae    11efd0 <_ZN6system4core2io3out5cleanENS1_5colorES3_hh+0x220>
  11edec:	89 d0                	mov    eax,edx
  11edee:	c1 e5 04             	shl    ebp,0x4
  11edf1:	83 e0 0f             	and    eax,0xf
  11edf4:	88 44 24 04          	mov    BYTE PTR [esp+0x4],al
  11edf8:	e9 87 00 00 00       	jmp    11ee84 <_ZN6system4core2io3out5cleanENS1_5colorES3_hh+0xd4>
  11edfd:	8d 76 00             	lea    esi,[esi+0x0]
  11ee00:	85 f6                	test   esi,esi
  11ee02:	0f 84 d6 02 00 00    	je     11f0de <_ZN6system4core2io3out5cleanENS1_5colorES3_hh+0x32e>
  11ee08:	39 c2                	cmp    edx,eax
  11ee0a:	0f 83 60 01 00 00    	jae    11ef70 <_ZN6system4core2io3out5cleanENS1_5colorES3_hh+0x1c0>
  11ee10:	8b 4e 04             	mov    ecx,DWORD PTR [esi+0x4]
  11ee13:	8d 0c 51             	lea    ecx,[ecx+edx*2]
  11ee16:	85 c9                	test   ecx,ecx
  11ee18:	0f 84 5e 02 00 00    	je     11f07c <_ZN6system4core2io3out5cleanENS1_5colorES3_hh+0x2cc>
  11ee1e:	0f b6 51 01          	movzx  edx,BYTE PTR [ecx+0x1]
  11ee22:	83 e2 0f             	and    edx,0xf
  11ee25:	09 ea                	or     edx,ebp
  11ee27:	85 db                	test   ebx,ebx
  11ee29:	88 51 01             	mov    BYTE PTR [ecx+0x1],dl
  11ee2c:	8d 14 18             	lea    edx,[eax+ebx*1]
  11ee2f:	0f 49 d3             	cmovns edx,ebx
  11ee32:	39 d0                	cmp    eax,edx
  11ee34:	0f 86 d6 00 00 00    	jbe    11ef10 <_ZN6system4core2io3out5cleanENS1_5colorES3_hh+0x160>
  11ee3a:	8b 4e 04             	mov    ecx,DWORD PTR [esi+0x4]
  11ee3d:	8d 0c 51             	lea    ecx,[ecx+edx*2]
  11ee40:	85 c9                	test   ecx,ecx
  11ee42:	0f 84 cc 01 00 00    	je     11f014 <_ZN6system4core2io3out5cleanENS1_5colorES3_hh+0x264>
  11ee48:	0f b6 51 01          	movzx  edx,BYTE PTR [ecx+0x1]
  11ee4c:	83 e2 f0             	and    edx,0xfffffff0
  11ee4f:	0a 54 24 04          	or     dl,BYTE PTR [esp+0x4]
  11ee53:	85 db                	test   ebx,ebx
  11ee55:	88 51 01             	mov    BYTE PTR [ecx+0x1],dl
  11ee58:	8d 14 18             	lea    edx,[eax+ebx*1]
  11ee5b:	0f 49 d3             	cmovns edx,ebx
  11ee5e:	39 d0                	cmp    eax,edx
  11ee60:	76 4e                	jbe    11eeb0 <_ZN6system4core2io3out5cleanENS1_5colorES3_hh+0x100>
  11ee62:	8b 46 04             	mov    eax,DWORD PTR [esi+0x4]
  11ee65:	8d 04 50             	lea    eax,[eax+edx*2]
  11ee68:	85 c0                	test   eax,eax
  11ee6a:	0f 84 86 01 00 00    	je     11eff6 <_ZN6system4core2io3out5cleanENS1_5colorES3_hh+0x246>
  11ee70:	c6 00 00             	mov    BYTE PTR [eax],0x0
  11ee73:	8b 46 30             	mov    eax,DWORD PTR [esi+0x30]
  11ee76:	83 c3 01             	add    ebx,0x1
  11ee79:	0f af c7             	imul   eax,edi
  11ee7c:	39 d8                	cmp    eax,ebx
  11ee7e:	0f 86 4c 01 00 00    	jbe    11efd0 <_ZN6system4core2io3out5cleanENS1_5colorES3_hh+0x220>
  11ee84:	85 f6                	test   esi,esi
  11ee86:	0f 84 ae 01 00 00    	je     11f03a <_ZN6system4core2io3out5cleanENS1_5colorES3_hh+0x28a>
  11ee8c:	85 db                	test   ebx,ebx
  11ee8e:	8b 06                	mov    eax,DWORD PTR [esi]
  11ee90:	89 da                	mov    edx,ebx
  11ee92:	0f 89 68 ff ff ff    	jns    11ee00 <_ZN6system4core2io3out5cleanENS1_5colorES3_hh+0x50>
  11ee98:	85 f6                	test   esi,esi
  11ee9a:	0f 84 02 02 00 00    	je     11f0a2 <_ZN6system4core2io3out5cleanENS1_5colorES3_hh+0x2f2>
  11eea0:	8d 14 03             	lea    edx,[ebx+eax*1]
  11eea3:	e9 58 ff ff ff       	jmp    11ee00 <_ZN6system4core2io3out5cleanENS1_5colorES3_hh+0x50>
  11eea8:	90                   	nop
  11eea9:	8d b4 26 00 00 00 00 	lea    esi,[esi+eiz*1+0x0]
  11eeb0:	83 ec 0c             	sub    esp,0xc
  11eeb3:	68 12 e1 10 00       	push   0x10e112
  11eeb8:	e8 13 e7 00 00       	call   12d5d0 <dprint_error>
  11eebd:	83 c4 0c             	add    esp,0xc
  11eec0:	6a 02                	push   0x2
  11eec2:	6a 00                	push   0x0
  11eec4:	ff 76 08             	push   DWORD PTR [esi+0x8]
  11eec7:	e8 d4 a4 01 00       	call   1393a0 <memset>
  11eecc:	8b 46 08             	mov    eax,DWORD PTR [esi+0x8]
  11eecf:	83 c4 10             	add    esp,0x10
  11eed2:	85 c0                	test   eax,eax
  11eed4:	75 9a                	jne    11ee70 <_ZN6system4core2io3out5cleanENS1_5colorES3_hh+0xc0>
  11eed6:	89 44 24 08          	mov    DWORD PTR [esp+0x8],eax
  11eeda:	52                   	push   edx
  11eedb:	52                   	push   edx
  11eedc:	6a 00                	push   0x0
  11eede:	68 34 18 10 00       	push   0x101834
  11eee3:	e8 f8 9f 01 00       	call   138ee0 <__ubsan_handle_type_mismatch>
  11eee8:	83 c4 10             	add    esp,0x10
  11eeeb:	8b 44 24 08          	mov    eax,DWORD PTR [esp+0x8]
  11eeef:	89 44 24 08          	mov    DWORD PTR [esp+0x8],eax
  11eef3:	83 ec 08             	sub    esp,0x8
  11eef6:	6a 00                	push   0x0
  11eef8:	68 04 18 10 00       	push   0x101804
  11eefd:	e8 de 9f 01 00       	call   138ee0 <__ubsan_handle_type_mismatch>
  11ef02:	83 c4 10             	add    esp,0x10
  11ef05:	8b 44 24 08          	mov    eax,DWORD PTR [esp+0x8]
  11ef09:	e9 62 ff ff ff       	jmp    11ee70 <_ZN6system4core2io3out5cleanENS1_5colorES3_hh+0xc0>
  11ef0e:	66 90                	xchg   ax,ax
  11ef10:	83 ec 0c             	sub    esp,0xc
  11ef13:	68 12 e1 10 00       	push   0x10e112
  11ef18:	e8 b3 e6 00 00       	call   12d5d0 <dprint_error>
  11ef1d:	83 c4 0c             	add    esp,0xc
  11ef20:	6a 02                	push   0x2
  11ef22:	6a 00                	push   0x0
  11ef24:	ff 76 08             	push   DWORD PTR [esi+0x8]
  11ef27:	e8 74 a4 01 00       	call   1393a0 <memset>
  11ef2c:	8b 4e 08             	mov    ecx,DWORD PTR [esi+0x8]
  11ef2f:	83 c4 10             	add    esp,0x10
  11ef32:	85 c9                	test   ecx,ecx
  11ef34:	0f 84 9e 00 00 00    	je     11efd8 <_ZN6system4core2io3out5cleanENS1_5colorES3_hh+0x228>
  11ef3a:	85 c9                	test   ecx,ecx
  11ef3c:	8b 06                	mov    eax,DWORD PTR [esi]
  11ef3e:	0f 85 04 ff ff ff    	jne    11ee48 <_ZN6system4core2io3out5cleanENS1_5colorES3_hh+0x98>
  11ef44:	89 4c 24 0c          	mov    DWORD PTR [esp+0xc],ecx
  11ef48:	89 44 24 08          	mov    DWORD PTR [esp+0x8],eax
  11ef4c:	51                   	push   ecx
  11ef4d:	51                   	push   ecx
  11ef4e:	6a 00                	push   0x0
  11ef50:	68 4c 18 10 00       	push   0x10184c
  11ef55:	e8 86 9f 01 00       	call   138ee0 <__ubsan_handle_type_mismatch>
  11ef5a:	83 c4 10             	add    esp,0x10
  11ef5d:	8b 4c 24 0c          	mov    ecx,DWORD PTR [esp+0xc]
  11ef61:	8b 44 24 08          	mov    eax,DWORD PTR [esp+0x8]
  11ef65:	e9 de fe ff ff       	jmp    11ee48 <_ZN6system4core2io3out5cleanENS1_5colorES3_hh+0x98>
  11ef6a:	8d b6 00 00 00 00    	lea    esi,[esi+0x0]
  11ef70:	83 ec 0c             	sub    esp,0xc
  11ef73:	68 12 e1 10 00       	push   0x10e112
  11ef78:	e8 53 e6 00 00       	call   12d5d0 <dprint_error>
  11ef7d:	83 c4 0c             	add    esp,0xc
  11ef80:	6a 02                	push   0x2
  11ef82:	6a 00                	push   0x0
  11ef84:	ff 76 08             	push   DWORD PTR [esi+0x8]
  11ef87:	e8 14 a4 01 00       	call   1393a0 <memset>
  11ef8c:	8b 4e 08             	mov    ecx,DWORD PTR [esi+0x8]
  11ef8f:	83 c4 10             	add    esp,0x10
  11ef92:	85 c9                	test   ecx,ecx
  11ef94:	0f 84 26 01 00 00    	je     11f0c0 <_ZN6system4core2io3out5cleanENS1_5colorES3_hh+0x310>
  11ef9a:	85 c9                	test   ecx,ecx
  11ef9c:	8b 06                	mov    eax,DWORD PTR [esi]
  11ef9e:	0f 85 7a fe ff ff    	jne    11ee1e <_ZN6system4core2io3out5cleanENS1_5colorES3_hh+0x6e>
  11efa4:	89 44 24 08          	mov    DWORD PTR [esp+0x8],eax
  11efa8:	89 4c 24 0c          	mov    DWORD PTR [esp+0xc],ecx
  11efac:	50                   	push   eax
  11efad:	50                   	push   eax
  11efae:	6a 00                	push   0x0
  11efb0:	68 94 18 10 00       	push   0x101894
  11efb5:	e8 26 9f 01 00       	call   138ee0 <__ubsan_handle_type_mismatch>
  11efba:	83 c4 10             	add    esp,0x10
  11efbd:	8b 4c 24 0c          	mov    ecx,DWORD PTR [esp+0xc]
  11efc1:	8b 44 24 08          	mov    eax,DWORD PTR [esp+0x8]
  11efc5:	e9 54 fe ff ff       	jmp    11ee1e <_ZN6system4core2io3out5cleanENS1_5colorES3_hh+0x6e>
  11efca:	8d b6 00 00 00 00    	lea    esi,[esi+0x0]
  11efd0:	83 c4 1c             	add    esp,0x1c
  11efd3:	5b                   	pop    ebx
  11efd4:	5e                   	pop    esi
  11efd5:	5f                   	pop    edi
  11efd6:	5d                   	pop    ebp
  11efd7:	c3                   	ret    
  11efd8:	89 4c 24 08          	mov    DWORD PTR [esp+0x8],ecx
  11efdc:	50                   	push   eax
  11efdd:	50                   	push   eax
  11efde:	6a 00                	push   0x0
  11efe0:	68 7c 18 10 00       	push   0x10187c
  11efe5:	e8 f6 9e 01 00       	call   138ee0 <__ubsan_handle_type_mismatch>
  11efea:	83 c4 10             	add    esp,0x10
  11efed:	8b 4c 24 08          	mov    ecx,DWORD PTR [esp+0x8]
  11eff1:	e9 44 ff ff ff       	jmp    11ef3a <_ZN6system4core2io3out5cleanENS1_5colorES3_hh+0x18a>
  11eff6:	89 44 24 08          	mov    DWORD PTR [esp+0x8],eax
  11effa:	50                   	push   eax
  11effb:	50                   	push   eax
  11effc:	6a 00                	push   0x0
  11effe:	68 1c 18 10 00       	push   0x10181c
  11f003:	e8 d8 9e 01 00       	call   138ee0 <__ubsan_handle_type_mismatch>
  11f008:	83 c4 10             	add    esp,0x10
  11f00b:	8b 44 24 08          	mov    eax,DWORD PTR [esp+0x8]
  11f00f:	e9 db fe ff ff       	jmp    11eeef <_ZN6system4core2io3out5cleanENS1_5colorES3_hh+0x13f>
  11f014:	89 44 24 08          	mov    DWORD PTR [esp+0x8],eax
  11f018:	89 4c 24 0c          	mov    DWORD PTR [esp+0xc],ecx
  11f01c:	50                   	push   eax
  11f01d:	50                   	push   eax
  11f01e:	6a 00                	push   0x0
  11f020:	68 64 18 10 00       	push   0x101864
  11f025:	e8 b6 9e 01 00       	call   138ee0 <__ubsan_handle_type_mismatch>
  11f02a:	83 c4 10             	add    esp,0x10
  11f02d:	8b 4c 24 0c          	mov    ecx,DWORD PTR [esp+0xc]
  11f031:	8b 44 24 08          	mov    eax,DWORD PTR [esp+0x8]
  11f035:	e9 0a ff ff ff       	jmp    11ef44 <_ZN6system4core2io3out5cleanENS1_5colorES3_hh+0x194>
  11f03a:	51                   	push   ecx
  11f03b:	51                   	push   ecx
  11f03c:	6a 00                	push   0x0
  11f03e:	68 24 19 10 00       	push   0x101924
  11f043:	e8 98 9e 01 00       	call   138ee0 <__ubsan_handle_type_mismatch>
  11f048:	58                   	pop    eax
  11f049:	5a                   	pop    edx
  11f04a:	6a 00                	push   0x0
  11f04c:	68 0c 19 10 00       	push   0x10190c
  11f051:	e8 8a 9e 01 00       	call   138ee0 <__ubsan_handle_type_mismatch>
  11f056:	83 c4 10             	add    esp,0x10
  11f059:	e9 2e fe ff ff       	jmp    11ee8c <_ZN6system4core2io3out5cleanENS1_5colorES3_hh+0xdc>
  11f05e:	89 54 24 04          	mov    DWORD PTR [esp+0x4],edx
  11f062:	51                   	push   ecx
  11f063:	51                   	push   ecx
  11f064:	6a 00                	push   0x0
  11f066:	68 3c 19 10 00       	push   0x10193c
  11f06b:	e8 70 9e 01 00       	call   138ee0 <__ubsan_handle_type_mismatch>
  11f070:	83 c4 10             	add    esp,0x10
  11f073:	8b 54 24 04          	mov    edx,DWORD PTR [esp+0x4]
  11f077:	e9 59 fd ff ff       	jmp    11edd5 <_ZN6system4core2io3out5cleanENS1_5colorES3_hh+0x25>
  11f07c:	89 44 24 08          	mov    DWORD PTR [esp+0x8],eax
  11f080:	89 4c 24 0c          	mov    DWORD PTR [esp+0xc],ecx
  11f084:	50                   	push   eax
  11f085:	50                   	push   eax
  11f086:	6a 00                	push   0x0
  11f088:	68 ac 18 10 00       	push   0x1018ac
  11f08d:	e8 4e 9e 01 00       	call   138ee0 <__ubsan_handle_type_mismatch>
  11f092:	83 c4 10             	add    esp,0x10
  11f095:	8b 4c 24 0c          	mov    ecx,DWORD PTR [esp+0xc]
  11f099:	8b 44 24 08          	mov    eax,DWORD PTR [esp+0x8]
  11f09d:	e9 02 ff ff ff       	jmp    11efa4 <_ZN6system4core2io3out5cleanENS1_5colorES3_hh+0x1f4>
  11f0a2:	89 44 24 08          	mov    DWORD PTR [esp+0x8],eax
  11f0a6:	52                   	push   edx
  11f0a7:	52                   	push   edx
  11f0a8:	6a 00                	push   0x0
  11f0aa:	68 f4 18 10 00       	push   0x1018f4
  11f0af:	e8 2c 9e 01 00       	call   138ee0 <__ubsan_handle_type_mismatch>
  11f0b4:	83 c4 10             	add    esp,0x10
  11f0b7:	8b 44 24 08          	mov    eax,DWORD PTR [esp+0x8]
  11f0bb:	e9 e0 fd ff ff       	jmp    11eea0 <_ZN6system4core2io3out5cleanENS1_5colorES3_hh+0xf0>
  11f0c0:	89 4c 24 08          	mov    DWORD PTR [esp+0x8],ecx
  11f0c4:	50                   	push   eax
  11f0c5:	50                   	push   eax
  11f0c6:	6a 00                	push   0x0
  11f0c8:	68 c4 18 10 00       	push   0x1018c4
  11f0cd:	e8 0e 9e 01 00       	call   138ee0 <__ubsan_handle_type_mismatch>
  11f0d2:	83 c4 10             	add    esp,0x10
  11f0d5:	8b 4c 24 08          	mov    ecx,DWORD PTR [esp+0x8]
  11f0d9:	e9 bc fe ff ff       	jmp    11ef9a <_ZN6system4core2io3out5cleanENS1_5colorES3_hh+0x1ea>
  11f0de:	89 44 24 08          	mov    DWORD PTR [esp+0x8],eax
  11f0e2:	89 54 24 0c          	mov    DWORD PTR [esp+0xc],edx
  11f0e6:	50                   	push   eax
  11f0e7:	50                   	push   eax
  11f0e8:	6a 00                	push   0x0
  11f0ea:	68 dc 18 10 00       	push   0x1018dc
  11f0ef:	e8 ec 9d 01 00       	call   138ee0 <__ubsan_handle_type_mismatch>
  11f0f4:	83 c4 10             	add    esp,0x10
  11f0f7:	8b 54 24 0c          	mov    edx,DWORD PTR [esp+0xc]
  11f0fb:	8b 44 24 08          	mov    eax,DWORD PTR [esp+0x8]
  11f0ff:	e9 04 fd ff ff       	jmp    11ee08 <_ZN6system4core2io3out5cleanENS1_5colorES3_hh+0x58>
  11f104:	8d b6 00 00 00 00    	lea    esi,[esi+0x0]
  11f10a:	8d bf 00 00 00 00    	lea    edi,[edi+0x0]

0011f110 <_ZN6system4core2io3out5cleanENS1_5colorES3_hhhh>:
  11f110:	55                   	push   ebp
  11f111:	57                   	push   edi
  11f112:	56                   	push   esi
  11f113:	53                   	push   ebx
  11f114:	83 ec 1c             	sub    esp,0x1c
  11f117:	8b 74 24 30          	mov    esi,DWORD PTR [esp+0x30]
  11f11b:	8b 7c 24 34          	mov    edi,DWORD PTR [esp+0x34]
  11f11f:	8b 6c 24 38          	mov    ebp,DWORD PTR [esp+0x38]
  11f123:	8b 54 24 44          	mov    edx,DWORD PTR [esp+0x44]
  11f127:	8b 44 24 48          	mov    eax,DWORD PTR [esp+0x48]
  11f12b:	0f b6 4c 24 3c       	movzx  ecx,BYTE PTR [esp+0x3c]
  11f130:	85 f6                	test   esi,esi
  11f132:	0f b6 5c 24 40       	movzx  ebx,BYTE PTR [esp+0x40]
  11f137:	0f 84 a1 02 00 00    	je     11f3de <_ZN6system4core2io3out5cleanENS1_5colorES3_hhhh+0x2ce>
  11f13d:	0f af 5e 30          	imul   ebx,DWORD PTR [esi+0x30]
  11f141:	0f b6 d2             	movzx  edx,dl
  11f144:	01 cb                	add    ebx,ecx
  11f146:	0f b6 c8             	movzx  ecx,al
  11f149:	8b 46 30             	mov    eax,DWORD PTR [esi+0x30]
  11f14c:	0f af c1             	imul   eax,ecx
  11f14f:	01 d0                	add    eax,edx
  11f151:	39 c3                	cmp    ebx,eax
  11f153:	0f 83 f7 01 00 00    	jae    11f350 <_ZN6system4core2io3out5cleanENS1_5colorES3_hhhh+0x240>
  11f159:	89 e8                	mov    eax,ebp
  11f15b:	89 cd                	mov    ebp,ecx
  11f15d:	c1 e0 04             	shl    eax,0x4
  11f160:	88 04 24             	mov    BYTE PTR [esp],al
  11f163:	89 f8                	mov    eax,edi
  11f165:	89 d7                	mov    edi,edx
  11f167:	83 e0 0f             	and    eax,0xf
  11f16a:	88 44 24 04          	mov    BYTE PTR [esp+0x4],al
  11f16e:	e9 94 00 00 00       	jmp    11f207 <_ZN6system4core2io3out5cleanENS1_5colorES3_hhhh+0xf7>
  11f173:	8d b6 00 00 00 00    	lea    esi,[esi+0x0]
  11f179:	8d bc 27 00 00 00 00 	lea    edi,[edi+eiz*1+0x0]
  11f180:	85 f6                	test   esi,esi
  11f182:	0f 84 e4 02 00 00    	je     11f46c <_ZN6system4core2io3out5cleanENS1_5colorES3_hhhh+0x35c>
  11f188:	39 c2                	cmp    edx,eax
  11f18a:	0f 83 60 01 00 00    	jae    11f2f0 <_ZN6system4core2io3out5cleanENS1_5colorES3_hhhh+0x1e0>
  11f190:	8b 4e 04             	mov    ecx,DWORD PTR [esi+0x4]
  11f193:	8d 0c 51             	lea    ecx,[ecx+edx*2]
  11f196:	85 c9                	test   ecx,ecx
  11f198:	0f 84 6c 02 00 00    	je     11f40a <_ZN6system4core2io3out5cleanENS1_5colorES3_hhhh+0x2fa>
  11f19e:	0f b6 51 01          	movzx  edx,BYTE PTR [ecx+0x1]
  11f1a2:	83 e2 0f             	and    edx,0xf
  11f1a5:	0a 14 24             	or     dl,BYTE PTR [esp]
  11f1a8:	85 db                	test   ebx,ebx
  11f1aa:	88 51 01             	mov    BYTE PTR [ecx+0x1],dl
  11f1ad:	8d 14 03             	lea    edx,[ebx+eax*1]
  11f1b0:	0f 49 d3             	cmovns edx,ebx
  11f1b3:	39 c2                	cmp    edx,eax
  11f1b5:	0f 83 d5 00 00 00    	jae    11f290 <_ZN6system4core2io3out5cleanENS1_5colorES3_hhhh+0x180>
  11f1bb:	8b 4e 04             	mov    ecx,DWORD PTR [esi+0x4]
  11f1be:	8d 0c 51             	lea    ecx,[ecx+edx*2]
  11f1c1:	85 c9                	test   ecx,ecx
  11f1c3:	0f 84 cb 01 00 00    	je     11f394 <_ZN6system4core2io3out5cleanENS1_5colorES3_hhhh+0x284>
  11f1c9:	0f b6 51 01          	movzx  edx,BYTE PTR [ecx+0x1]
  11f1cd:	83 e2 f0             	and    edx,0xfffffff0
  11f1d0:	0a 54 24 04          	or     dl,BYTE PTR [esp+0x4]
  11f1d4:	85 db                	test   ebx,ebx
  11f1d6:	88 51 01             	mov    BYTE PTR [ecx+0x1],dl
  11f1d9:	8d 14 03             	lea    edx,[ebx+eax*1]
  11f1dc:	0f 49 d3             	cmovns edx,ebx
  11f1df:	39 c2                	cmp    edx,eax
  11f1e1:	73 4d                	jae    11f230 <_ZN6system4core2io3out5cleanENS1_5colorES3_hhhh+0x120>
  11f1e3:	8b 46 04             	mov    eax,DWORD PTR [esi+0x4]
  11f1e6:	8d 04 50             	lea    eax,[eax+edx*2]
  11f1e9:	85 c0                	test   eax,eax
  11f1eb:	0f 84 85 01 00 00    	je     11f376 <_ZN6system4core2io3out5cleanENS1_5colorES3_hhhh+0x266>
  11f1f1:	c6 00 00             	mov    BYTE PTR [eax],0x0
  11f1f4:	8b 46 30             	mov    eax,DWORD PTR [esi+0x30]
  11f1f7:	83 c3 01             	add    ebx,0x1
  11f1fa:	0f af c5             	imul   eax,ebp
  11f1fd:	01 f8                	add    eax,edi
  11f1ff:	39 d8                	cmp    eax,ebx
  11f201:	0f 86 49 01 00 00    	jbe    11f350 <_ZN6system4core2io3out5cleanENS1_5colorES3_hhhh+0x240>
  11f207:	85 f6                	test   esi,esi
  11f209:	0f 84 ab 01 00 00    	je     11f3ba <_ZN6system4core2io3out5cleanENS1_5colorES3_hhhh+0x2aa>
  11f20f:	85 db                	test   ebx,ebx
  11f211:	8b 06                	mov    eax,DWORD PTR [esi]
  11f213:	89 da                	mov    edx,ebx
  11f215:	0f 89 65 ff ff ff    	jns    11f180 <_ZN6system4core2io3out5cleanENS1_5colorES3_hhhh+0x70>
  11f21b:	85 f6                	test   esi,esi
  11f21d:	0f 84 0d 02 00 00    	je     11f430 <_ZN6system4core2io3out5cleanENS1_5colorES3_hhhh+0x320>
  11f223:	8d 14 03             	lea    edx,[ebx+eax*1]
  11f226:	e9 55 ff ff ff       	jmp    11f180 <_ZN6system4core2io3out5cleanENS1_5colorES3_hhhh+0x70>
  11f22b:	90                   	nop
  11f22c:	8d 74 26 00          	lea    esi,[esi+eiz*1+0x0]
  11f230:	83 ec 0c             	sub    esp,0xc
  11f233:	68 12 e1 10 00       	push   0x10e112
  11f238:	e8 93 e3 00 00       	call   12d5d0 <dprint_error>
  11f23d:	83 c4 0c             	add    esp,0xc
  11f240:	6a 02                	push   0x2
  11f242:	6a 00                	push   0x0
  11f244:	ff 76 08             	push   DWORD PTR [esi+0x8]
  11f247:	e8 54 a1 01 00       	call   1393a0 <memset>
  11f24c:	8b 46 08             	mov    eax,DWORD PTR [esi+0x8]
  11f24f:	83 c4 10             	add    esp,0x10
  11f252:	85 c0                	test   eax,eax
  11f254:	75 9b                	jne    11f1f1 <_ZN6system4core2io3out5cleanENS1_5colorES3_hhhh+0xe1>
  11f256:	89 44 24 08          	mov    DWORD PTR [esp+0x8],eax
  11f25a:	52                   	push   edx
  11f25b:	52                   	push   edx
  11f25c:	6a 00                	push   0x0
  11f25e:	68 e4 16 10 00       	push   0x1016e4
  11f263:	e8 78 9c 01 00       	call   138ee0 <__ubsan_handle_type_mismatch>
  11f268:	83 c4 10             	add    esp,0x10
  11f26b:	8b 44 24 08          	mov    eax,DWORD PTR [esp+0x8]
  11f26f:	89 44 24 08          	mov    DWORD PTR [esp+0x8],eax
  11f273:	83 ec 08             	sub    esp,0x8
  11f276:	6a 00                	push   0x0
  11f278:	68 b4 16 10 00       	push   0x1016b4
  11f27d:	e8 5e 9c 01 00       	call   138ee0 <__ubsan_handle_type_mismatch>
  11f282:	83 c4 10             	add    esp,0x10
  11f285:	8b 44 24 08          	mov    eax,DWORD PTR [esp+0x8]
  11f289:	e9 63 ff ff ff       	jmp    11f1f1 <_ZN6system4core2io3out5cleanENS1_5colorES3_hhhh+0xe1>
  11f28e:	66 90                	xchg   ax,ax
  11f290:	83 ec 0c             	sub    esp,0xc
  11f293:	68 12 e1 10 00       	push   0x10e112
  11f298:	e8 33 e3 00 00       	call   12d5d0 <dprint_error>
  11f29d:	83 c4 0c             	add    esp,0xc
  11f2a0:	6a 02                	push   0x2
  11f2a2:	6a 00                	push   0x0
  11f2a4:	ff 76 08             	push   DWORD PTR [esi+0x8]
  11f2a7:	e8 f4 a0 01 00       	call   1393a0 <memset>
  11f2ac:	8b 4e 08             	mov    ecx,DWORD PTR [esi+0x8]
  11f2af:	83 c4 10             	add    esp,0x10
  11f2b2:	85 c9                	test   ecx,ecx
  11f2b4:	0f 84 9e 00 00 00    	je     11f358 <_ZN6system4core2io3out5cleanENS1_5colorES3_hhhh+0x248>
  11f2ba:	85 c9                	test   ecx,ecx
  11f2bc:	8b 06                	mov    eax,DWORD PTR [esi]
  11f2be:	0f 85 05 ff ff ff    	jne    11f1c9 <_ZN6system4core2io3out5cleanENS1_5colorES3_hhhh+0xb9>
  11f2c4:	89 4c 24 08          	mov    DWORD PTR [esp+0x8],ecx
  11f2c8:	89 44 24 0c          	mov    DWORD PTR [esp+0xc],eax
  11f2cc:	51                   	push   ecx
  11f2cd:	51                   	push   ecx
  11f2ce:	6a 00                	push   0x0
  11f2d0:	68 fc 16 10 00       	push   0x1016fc
  11f2d5:	e8 06 9c 01 00       	call   138ee0 <__ubsan_handle_type_mismatch>
  11f2da:	83 c4 10             	add    esp,0x10
  11f2dd:	8b 44 24 0c          	mov    eax,DWORD PTR [esp+0xc]
  11f2e1:	8b 4c 24 08          	mov    ecx,DWORD PTR [esp+0x8]
  11f2e5:	e9 df fe ff ff       	jmp    11f1c9 <_ZN6system4core2io3out5cleanENS1_5colorES3_hhhh+0xb9>
  11f2ea:	8d b6 00 00 00 00    	lea    esi,[esi+0x0]
  11f2f0:	83 ec 0c             	sub    esp,0xc
  11f2f3:	68 12 e1 10 00       	push   0x10e112
  11f2f8:	e8 d3 e2 00 00       	call   12d5d0 <dprint_error>
  11f2fd:	83 c4 0c             	add    esp,0xc
  11f300:	6a 02                	push   0x2
  11f302:	6a 00                	push   0x0
  11f304:	ff 76 08             	push   DWORD PTR [esi+0x8]
  11f307:	e8 94 a0 01 00       	call   1393a0 <memset>
  11f30c:	8b 4e 08             	mov    ecx,DWORD PTR [esi+0x8]
  11f30f:	83 c4 10             	add    esp,0x10
  11f312:	85 c9                	test   ecx,ecx
  11f314:	0f 84 34 01 00 00    	je     11f44e <_ZN6system4core2io3out5cleanENS1_5colorES3_hhhh+0x33e>
  11f31a:	85 c9                	test   ecx,ecx
  11f31c:	8b 06                	mov    eax,DWORD PTR [esi]
  11f31e:	0f 85 7a fe ff ff    	jne    11f19e <_ZN6system4core2io3out5cleanENS1_5colorES3_hhhh+0x8e>
  11f324:	89 44 24 0c          	mov    DWORD PTR [esp+0xc],eax
  11f328:	89 4c 24 08          	mov    DWORD PTR [esp+0x8],ecx
  11f32c:	50                   	push   eax
  11f32d:	50                   	push   eax
  11f32e:	6a 00                	push   0x0
  11f330:	68 44 17 10 00       	push   0x101744
  11f335:	e8 a6 9b 01 00       	call   138ee0 <__ubsan_handle_type_mismatch>
  11f33a:	83 c4 10             	add    esp,0x10
  11f33d:	8b 44 24 0c          	mov    eax,DWORD PTR [esp+0xc]
  11f341:	8b 4c 24 08          	mov    ecx,DWORD PTR [esp+0x8]
  11f345:	e9 54 fe ff ff       	jmp    11f19e <_ZN6system4core2io3out5cleanENS1_5colorES3_hhhh+0x8e>
  11f34a:	8d b6 00 00 00 00    	lea    esi,[esi+0x0]
  11f350:	83 c4 1c             	add    esp,0x1c
  11f353:	5b                   	pop    ebx
  11f354:	5e                   	pop    esi
  11f355:	5f                   	pop    edi
  11f356:	5d                   	pop    ebp
  11f357:	c3                   	ret    
  11f358:	89 4c 24 08          	mov    DWORD PTR [esp+0x8],ecx
  11f35c:	50                   	push   eax
  11f35d:	50                   	push   eax
  11f35e:	6a 00                	push   0x0
  11f360:	68 2c 17 10 00       	push   0x10172c
  11f365:	e8 76 9b 01 00       	call   138ee0 <__ubsan_handle_type_mismatch>
  11f36a:	83 c4 10             	add    esp,0x10
  11f36d:	8b 4c 24 08          	mov    ecx,DWORD PTR [esp+0x8]
  11f371:	e9 44 ff ff ff       	jmp    11f2ba <_ZN6system4core2io3out5cleanENS1_5colorES3_hhhh+0x1aa>
  11f376:	89 44 24 08          	mov    DWORD PTR [esp+0x8],eax
  11f37a:	50                   	push   eax
  11f37b:	50                   	push   eax
  11f37c:	6a 00                	push   0x0
  11f37e:	68 cc 16 10 00       	push   0x1016cc
  11f383:	e8 58 9b 01 00       	call   138ee0 <__ubsan_handle_type_mismatch>
  11f388:	83 c4 10             	add    esp,0x10
  11f38b:	8b 44 24 08          	mov    eax,DWORD PTR [esp+0x8]
  11f38f:	e9 db fe ff ff       	jmp    11f26f <_ZN6system4core2io3out5cleanENS1_5colorES3_hhhh+0x15f>
  11f394:	89 44 24 0c          	mov    DWORD PTR [esp+0xc],eax
  11f398:	89 4c 24 08          	mov    DWORD PTR [esp+0x8],ecx
  11f39c:	50                   	push   eax
  11f39d:	50                   	push   eax
  11f39e:	6a 00                	push   0x0
  11f3a0:	68 14 17 10 00       	push   0x101714
  11f3a5:	e8 36 9b 01 00       	call   138ee0 <__ubsan_handle_type_mismatch>
  11f3aa:	83 c4 10             	add    esp,0x10
  11f3ad:	8b 44 24 0c          	mov    eax,DWORD PTR [esp+0xc]
  11f3b1:	8b 4c 24 08          	mov    ecx,DWORD PTR [esp+0x8]
  11f3b5:	e9 0a ff ff ff       	jmp    11f2c4 <_ZN6system4core2io3out5cleanENS1_5colorES3_hhhh+0x1b4>
  11f3ba:	51                   	push   ecx
  11f3bb:	51                   	push   ecx
  11f3bc:	6a 00                	push   0x0
  11f3be:	68 d4 17 10 00       	push   0x1017d4
  11f3c3:	e8 18 9b 01 00       	call   138ee0 <__ubsan_handle_type_mismatch>
  11f3c8:	58                   	pop    eax
  11f3c9:	5a                   	pop    edx
  11f3ca:	6a 00                	push   0x0
  11f3cc:	68 bc 17 10 00       	push   0x1017bc
  11f3d1:	e8 0a 9b 01 00       	call   138ee0 <__ubsan_handle_type_mismatch>
  11f3d6:	83 c4 10             	add    esp,0x10
  11f3d9:	e9 31 fe ff ff       	jmp    11f20f <_ZN6system4core2io3out5cleanENS1_5colorES3_hhhh+0xff>
  11f3de:	89 0c 24             	mov    DWORD PTR [esp],ecx
  11f3e1:	89 44 24 08          	mov    DWORD PTR [esp+0x8],eax
  11f3e5:	89 54 24 04          	mov    DWORD PTR [esp+0x4],edx
  11f3e9:	51                   	push   ecx
  11f3ea:	51                   	push   ecx
  11f3eb:	6a 00                	push   0x0
  11f3ed:	68 ec 17 10 00       	push   0x1017ec
  11f3f2:	e8 e9 9a 01 00       	call   138ee0 <__ubsan_handle_type_mismatch>
  11f3f7:	83 c4 10             	add    esp,0x10
  11f3fa:	8b 44 24 08          	mov    eax,DWORD PTR [esp+0x8]
  11f3fe:	8b 54 24 04          	mov    edx,DWORD PTR [esp+0x4]
  11f402:	8b 0c 24             	mov    ecx,DWORD PTR [esp]
  11f405:	e9 33 fd ff ff       	jmp    11f13d <_ZN6system4core2io3out5cleanENS1_5colorES3_hhhh+0x2d>
  11f40a:	89 44 24 0c          	mov    DWORD PTR [esp+0xc],eax
  11f40e:	89 4c 24 08          	mov    DWORD PTR [esp+0x8],ecx
  11f412:	50                   	push   eax
  11f413:	50                   	push   eax
  11f414:	6a 00                	push   0x0
  11f416:	68 5c 17 10 00       	push   0x10175c
  11f41b:	e8 c0 9a 01 00       	call   138ee0 <__ubsan_handle_type_mismatch>
  11f420:	83 c4 10             	add    esp,0x10
  11f423:	8b 44 24 0c          	mov    eax,DWORD PTR [esp+0xc]
  11f427:	8b 4c 24 08          	mov    ecx,DWORD PTR [esp+0x8]
  11f42b:	e9 f4 fe ff ff       	jmp    11f324 <_ZN6system4core2io3out5cleanENS1_5colorES3_hhhh+0x214>
  11f430:	89 44 24 08          	mov    DWORD PTR [esp+0x8],eax
  11f434:	52                   	push   edx
  11f435:	52                   	push   edx
  11f436:	6a 00                	push   0x0
  11f438:	68 a4 17 10 00       	push   0x1017a4
  11f43d:	e8 9e 9a 01 00       	call   138ee0 <__ubsan_handle_type_mismatch>
  11f442:	83 c4 10             	add    esp,0x10
  11f445:	8b 44 24 08          	mov    eax,DWORD PTR [esp+0x8]
  11f449:	e9 d5 fd ff ff       	jmp    11f223 <_ZN6system4core2io3out5cleanENS1_5colorES3_hhhh+0x113>
  11f44e:	89 4c 24 08          	mov    DWORD PTR [esp+0x8],ecx
  11f452:	50                   	push   eax
  11f453:	50                   	push   eax
  11f454:	6a 00                	push   0x0
  11f456:	68 74 17 10 00       	push   0x101774
  11f45b:	e8 80 9a 01 00       	call   138ee0 <__ubsan_handle_type_mismatch>
  11f460:	83 c4 10             	add    esp,0x10
  11f463:	8b 4c 24 08          	mov    ecx,DWORD PTR [esp+0x8]
  11f467:	e9 ae fe ff ff       	jmp    11f31a <_ZN6system4core2io3out5cleanENS1_5colorES3_hhhh+0x20a>
  11f46c:	89 44 24 0c          	mov    DWORD PTR [esp+0xc],eax
  11f470:	89 54 24 08          	mov    DWORD PTR [esp+0x8],edx
  11f474:	50                   	push   eax
  11f475:	50                   	push   eax
  11f476:	6a 00                	push   0x0
  11f478:	68 8c 17 10 00       	push   0x10178c
  11f47d:	e8 5e 9a 01 00       	call   138ee0 <__ubsan_handle_type_mismatch>
  11f482:	83 c4 10             	add    esp,0x10
  11f485:	8b 44 24 0c          	mov    eax,DWORD PTR [esp+0xc]
  11f489:	8b 54 24 08          	mov    edx,DWORD PTR [esp+0x8]
  11f48d:	e9 f6 fc ff ff       	jmp    11f188 <_ZN6system4core2io3out5cleanENS1_5colorES3_hhhh+0x78>
  11f492:	8d b4 26 00 00 00 00 	lea    esi,[esi+eiz*1+0x0]
  11f499:	8d bc 27 00 00 00 00 	lea    edi,[edi+eiz*1+0x0]

0011f4a0 <_ZN6system4core2io3out6renderEv>:
  11f4a0:	83 ec 1c             	sub    esp,0x1c
  11f4a3:	8b 44 24 20          	mov    eax,DWORD PTR [esp+0x20]
  11f4a7:	85 c0                	test   eax,eax
  11f4a9:	74 1d                	je     11f4c8 <_ZN6system4core2io3out6renderEv+0x28>
  11f4ab:	80 78 16 00          	cmp    BYTE PTR [eax+0x16],0x0
  11f4af:	74 0f                	je     11f4c0 <_ZN6system4core2io3out6renderEv+0x20>
  11f4b1:	83 c4 1c             	add    esp,0x1c
  11f4b4:	c3                   	ret    
  11f4b5:	8d 74 26 00          	lea    esi,[esi+eiz*1+0x0]
  11f4b9:	8d bc 27 00 00 00 00 	lea    edi,[edi+eiz*1+0x0]
  11f4c0:	83 c4 1c             	add    esp,0x1c
  11f4c3:	e9 c8 ef ff ff       	jmp    11e490 <_ZN6system4core2io3out6renderEv.part.3>
  11f4c8:	89 44 24 0c          	mov    DWORD PTR [esp+0xc],eax
  11f4cc:	50                   	push   eax
  11f4cd:	50                   	push   eax
  11f4ce:	6a 00                	push   0x0
  11f4d0:	68 9c 16 10 00       	push   0x10169c
  11f4d5:	e8 06 9a 01 00       	call   138ee0 <__ubsan_handle_type_mismatch>
  11f4da:	83 c4 10             	add    esp,0x10
  11f4dd:	8b 44 24 0c          	mov    eax,DWORD PTR [esp+0xc]
  11f4e1:	eb c8                	jmp    11f4ab <_ZN6system4core2io3out6renderEv+0xb>
  11f4e3:	90                   	nop
  11f4e4:	8d b6 00 00 00 00    	lea    esi,[esi+0x0]
  11f4ea:	8d bf 00 00 00 00    	lea    edi,[edi+0x0]

0011f4f0 <_ZN6system4core2io3out4initEmmmmhh>:
  11f4f0:	55                   	push   ebp
  11f4f1:	57                   	push   edi
  11f4f2:	56                   	push   esi
  11f4f3:	53                   	push   ebx
  11f4f4:	83 ec 2c             	sub    esp,0x2c
  11f4f7:	8b 5c 24 40          	mov    ebx,DWORD PTR [esp+0x40]
  11f4fb:	8b 4c 24 44          	mov    ecx,DWORD PTR [esp+0x44]
  11f4ff:	8b 74 24 48          	mov    esi,DWORD PTR [esp+0x48]
  11f503:	8b 44 24 4c          	mov    eax,DWORD PTR [esp+0x4c]
  11f507:	8b 54 24 50          	mov    edx,DWORD PTR [esp+0x50]
  11f50b:	8b 6c 24 54          	mov    ebp,DWORD PTR [esp+0x54]
  11f50f:	85 db                	test   ebx,ebx
  11f511:	8b 7c 24 58          	mov    edi,DWORD PTR [esp+0x58]
  11f515:	0f 84 cf 00 00 00    	je     11f5ea <_ZN6system4core2io3out4initEmmmmhh+0xfa>
  11f51b:	89 73 30             	mov    DWORD PTR [ebx+0x30],esi
  11f51e:	89 43 34             	mov    DWORD PTR [ebx+0x34],eax
  11f521:	83 ec 0c             	sub    esp,0xc
  11f524:	0f af f0             	imul   esi,eax
  11f527:	c6 44 24 28 01       	mov    BYTE PTR [esp+0x28],0x1
  11f52c:	c6 43 16 01          	mov    BYTE PTR [ebx+0x16],0x1
  11f530:	89 4b 2c             	mov    DWORD PTR [ebx+0x2c],ecx
  11f533:	89 73 28             	mov    DWORD PTR [ebx+0x28],esi
  11f536:	0f af f2             	imul   esi,edx
  11f539:	8d 04 36             	lea    eax,[esi+esi*1]
  11f53c:	89 74 24 1c          	mov    DWORD PTR [esp+0x1c],esi
  11f540:	50                   	push   eax
  11f541:	e8 da a3 01 00       	call   139920 <alloc>
  11f546:	c7 44 24 28 00 00 00 00 	mov    DWORD PTR [esp+0x28],0x0
  11f54e:	89 44 24 24          	mov    DWORD PTR [esp+0x24],eax
  11f552:	83 c4 10             	add    esp,0x10
  11f555:	85 db                	test   ebx,ebx
  11f557:	89 c2                	mov    edx,eax
  11f559:	0f 84 b9 00 00 00    	je     11f618 <_ZN6system4core2io3out4initEmmmmhh+0x128>
  11f55f:	8b 03                	mov    eax,DWORD PTR [ebx]
  11f561:	85 c0                	test   eax,eax
  11f563:	75 4b                	jne    11f5b0 <_ZN6system4core2io3out4initEmmmmhh+0xc0>
  11f565:	89 e8                	mov    eax,ebp
  11f567:	c7 43 08 00 00 00 00 	mov    DWORD PTR [ebx+0x8],0x0
  11f56e:	89 53 04             	mov    DWORD PTR [ebx+0x4],edx
  11f571:	88 43 14             	mov    BYTE PTR [ebx+0x14],al
  11f574:	89 f8                	mov    eax,edi
  11f576:	89 33                	mov    DWORD PTR [ebx],esi
  11f578:	88 43 15             	mov    BYTE PTR [ebx+0x15],al
  11f57b:	89 e8                	mov    eax,ebp
  11f57d:	c6 43 0c 01          	mov    BYTE PTR [ebx+0xc],0x1
  11f581:	88 43 12             	mov    BYTE PTR [ebx+0x12],al
  11f584:	89 f8                	mov    eax,edi
  11f586:	c6 43 10 0f          	mov    BYTE PTR [ebx+0x10],0xf
  11f58a:	c6 43 11 00          	mov    BYTE PTR [ebx+0x11],0x0
  11f58e:	88 43 13             	mov    BYTE PTR [ebx+0x13],al
  11f591:	89 5c 24 40          	mov    DWORD PTR [esp+0x40],ebx
  11f595:	83 c4 2c             	add    esp,0x2c
  11f598:	5b                   	pop    ebx
  11f599:	5e                   	pop    esi
  11f59a:	5f                   	pop    edi
  11f59b:	5d                   	pop    ebp
  11f59c:	e9 3f f2 ff ff       	jmp    11e7e0 <_ZN6system4core2io3out5cleanEv>
  11f5a1:	eb 0d                	jmp    11f5b0 <_ZN6system4core2io3out4initEmmmmhh+0xc0>
  11f5a3:	90                   	nop
  11f5a4:	90                   	nop
  11f5a5:	90                   	nop
  11f5a6:	90                   	nop
  11f5a7:	90                   	nop
  11f5a8:	90                   	nop
  11f5a9:	90                   	nop
  11f5aa:	90                   	nop
  11f5ab:	90                   	nop
  11f5ac:	90                   	nop
  11f5ad:	90                   	nop
  11f5ae:	90                   	nop
  11f5af:	90                   	nop
  11f5b0:	80 7b 0c 00          	cmp    BYTE PTR [ebx+0xc],0x0
  11f5b4:	75 af                	jne    11f565 <_ZN6system4core2io3out4initEmmmmhh+0x75>
  11f5b6:	8b 43 04             	mov    eax,DWORD PTR [ebx+0x4]
  11f5b9:	85 c0                	test   eax,eax
  11f5bb:	74 a8                	je     11f565 <_ZN6system4core2io3out4initEmmmmhh+0x75>
  11f5bd:	89 54 24 04          	mov    DWORD PTR [esp+0x4],edx
  11f5c1:	83 ec 0c             	sub    esp,0xc
  11f5c4:	50                   	push   eax
  11f5c5:	e8 96 a3 01 00       	call   139960 <free>
  11f5ca:	83 c4 10             	add    esp,0x10
  11f5cd:	c7 03 00 00 00 00    	mov    DWORD PTR [ebx],0x0
  11f5d3:	c7 43 04 00 00 00 00 	mov    DWORD PTR [ebx+0x4],0x0
  11f5da:	c7 43 08 00 00 00 00 	mov    DWORD PTR [ebx+0x8],0x0
  11f5e1:	8b 54 24 04          	mov    edx,DWORD PTR [esp+0x4]
  11f5e5:	e9 7b ff ff ff       	jmp    11f565 <_ZN6system4core2io3out4initEmmmmhh+0x75>
  11f5ea:	89 44 24 08          	mov    DWORD PTR [esp+0x8],eax
  11f5ee:	89 54 24 0c          	mov    DWORD PTR [esp+0xc],edx
  11f5f2:	89 4c 24 04          	mov    DWORD PTR [esp+0x4],ecx
  11f5f6:	50                   	push   eax
  11f5f7:	50                   	push   eax
  11f5f8:	6a 00                	push   0x0
  11f5fa:	68 84 16 10 00       	push   0x101684
  11f5ff:	e8 dc 98 01 00       	call   138ee0 <__ubsan_handle_type_mismatch>
  11f604:	83 c4 10             	add    esp,0x10
  11f607:	8b 54 24 0c          	mov    edx,DWORD PTR [esp+0xc]
  11f60b:	8b 44 24 08          	mov    eax,DWORD PTR [esp+0x8]
  11f60f:	8b 4c 24 04          	mov    ecx,DWORD PTR [esp+0x4]
  11f613:	e9 03 ff ff ff       	jmp    11f51b <_ZN6system4core2io3out4initEmmmmhh+0x2b>
  11f618:	89 44 24 04          	mov    DWORD PTR [esp+0x4],eax
  11f61c:	52                   	push   edx
  11f61d:	52                   	push   edx
  11f61e:	6a 00                	push   0x0
  11f620:	68 6c 16 10 00       	push   0x10166c
  11f625:	e8 b6 98 01 00       	call   138ee0 <__ubsan_handle_type_mismatch>
  11f62a:	59                   	pop    ecx
  11f62b:	58                   	pop    eax
  11f62c:	6a 00                	push   0x0
  11f62e:	68 54 16 10 00       	push   0x101654
  11f633:	e8 a8 98 01 00       	call   138ee0 <__ubsan_handle_type_mismatch>
  11f638:	83 c4 10             	add    esp,0x10
  11f63b:	8b 54 24 04          	mov    edx,DWORD PTR [esp+0x4]
  11f63f:	e9 1b ff ff ff       	jmp    11f55f <_ZN6system4core2io3out4initEmmmmhh+0x6f>
  11f644:	8d b6 00 00 00 00    	lea    esi,[esi+0x0]
  11f64a:	8d bf 00 00 00 00    	lea    edi,[edi+0x0]

0011f650 <_ZN6system4core2io3out7disposeEv>:
  11f650:	53                   	push   ebx
  11f651:	83 ec 08             	sub    esp,0x8
  11f654:	8b 5c 24 10          	mov    ebx,DWORD PTR [esp+0x10]
  11f658:	85 db                	test   ebx,ebx
  11f65a:	74 49                	je     11f6a5 <_ZN6system4core2io3out7disposeEv+0x55>
  11f65c:	8b 03                	mov    eax,DWORD PTR [ebx]
  11f65e:	c6 43 0c 00          	mov    BYTE PTR [ebx+0xc],0x0
  11f662:	85 c0                	test   eax,eax
  11f664:	74 07                	je     11f66d <_ZN6system4core2io3out7disposeEv+0x1d>
  11f666:	8b 43 04             	mov    eax,DWORD PTR [ebx+0x4]
  11f669:	85 c0                	test   eax,eax
  11f66b:	75 13                	jne    11f680 <_ZN6system4core2io3out7disposeEv+0x30>
  11f66d:	83 c4 08             	add    esp,0x8
  11f670:	5b                   	pop    ebx
  11f671:	c3                   	ret    
  11f672:	8d b4 26 00 00 00 00 	lea    esi,[esi+eiz*1+0x0]
  11f679:	8d bc 27 00 00 00 00 	lea    edi,[edi+eiz*1+0x0]
  11f680:	83 ec 0c             	sub    esp,0xc
  11f683:	50                   	push   eax
  11f684:	e8 d7 a2 01 00       	call   139960 <free>
  11f689:	83 c4 10             	add    esp,0x10
  11f68c:	c7 03 00 00 00 00    	mov    DWORD PTR [ebx],0x0
  11f692:	c7 43 04 00 00 00 00 	mov    DWORD PTR [ebx+0x4],0x0
  11f699:	c7 43 08 00 00 00 00 	mov    DWORD PTR [ebx+0x8],0x0
  11f6a0:	83 c4 08             	add    esp,0x8
  11f6a3:	5b                   	pop    ebx
  11f6a4:	c3                   	ret    
  11f6a5:	52                   	push   edx
  11f6a6:	52                   	push   edx
  11f6a7:	6a 00                	push   0x0
  11f6a9:	68 3c 16 10 00       	push   0x10163c
  11f6ae:	e8 2d 98 01 00       	call   138ee0 <__ubsan_handle_type_mismatch>
  11f6b3:	59                   	pop    ecx
  11f6b4:	58                   	pop    eax
  11f6b5:	6a 00                	push   0x0
  11f6b7:	68 24 16 10 00       	push   0x101624
  11f6bc:	e8 1f 98 01 00       	call   138ee0 <__ubsan_handle_type_mismatch>
  11f6c1:	83 c4 10             	add    esp,0x10
  11f6c4:	eb 96                	jmp    11f65c <_ZN6system4core2io3out7disposeEv+0xc>
  11f6c6:	8d 76 00             	lea    esi,[esi+0x0]
  11f6c9:	8d bc 27 00 00 00 00 	lea    edi,[edi+eiz*1+0x0]

0011f6d0 <_ZN6system4core2io3out13format_stringEPcPKcS3_>:
  11f6d0:	55                   	push   ebp
  11f6d1:	57                   	push   edi
  11f6d2:	56                   	push   esi
  11f6d3:	53                   	push   ebx
  11f6d4:	83 ec 2c             	sub    esp,0x2c
  11f6d7:	8b 54 24 44          	mov    edx,DWORD PTR [esp+0x44]
  11f6db:	8b 4c 24 48          	mov    ecx,DWORD PTR [esp+0x48]
  11f6df:	8b 44 24 4c          	mov    eax,DWORD PTR [esp+0x4c]
  11f6e3:	85 d2                	test   edx,edx
  11f6e5:	0f 84 c5 01 00 00    	je     11f8b0 <_ZN6system4core2io3out13format_stringEPcPKcS3_+0x1e0>
  11f6eb:	85 c9                	test   ecx,ecx
  11f6ed:	0f 84 12 1a 00 00    	je     121105 <_ZN6system4core2io3out13format_stringEPcPKcS3_+0x1a35>
  11f6f3:	0f b6 11             	movzx  edx,BYTE PTR [ecx]
  11f6f6:	84 d2                	test   dl,dl
  11f6f8:	0f 84 b2 01 00 00    	je     11f8b0 <_ZN6system4core2io3out13format_stringEPcPKcS3_+0x1e0>
  11f6fe:	8d 59 01             	lea    ebx,[ecx+0x1]
  11f701:	31 f6                	xor    esi,esi
  11f703:	89 d7                	mov    edi,edx
  11f705:	89 cd                	mov    ebp,ecx
  11f707:	89 f6                	mov    esi,esi
  11f709:	8d bc 27 00 00 00 00 	lea    edi,[edi+eiz*1+0x0]
  11f710:	83 c6 01             	add    esi,0x1
  11f713:	85 db                	test   ebx,ebx
  11f715:	0f 84 6c 16 00 00    	je     120d87 <_ZN6system4core2io3out13format_stringEPcPKcS3_+0x16b7>
  11f71b:	83 c3 01             	add    ebx,0x1
  11f71e:	80 7b ff 00          	cmp    BYTE PTR [ebx-0x1],0x0
  11f722:	75 ec                	jne    11f710 <_ZN6system4core2io3out13format_stringEPcPKcS3_+0x40>
  11f724:	85 f6                	test   esi,esi
  11f726:	89 fa                	mov    edx,edi
  11f728:	0f 84 82 01 00 00    	je     11f8b0 <_ZN6system4core2io3out13format_stringEPcPKcS3_+0x1e0>
  11f72e:	8b 4c 24 44          	mov    ecx,DWORD PTR [esp+0x44]
  11f732:	89 eb                	mov    ebx,ebp
  11f734:	89 c7                	mov    edi,eax
  11f736:	8d 76 00             	lea    esi,[esi+0x0]
  11f739:	8d bc 27 00 00 00 00 	lea    edi,[edi+eiz*1+0x0]
  11f740:	85 db                	test   ebx,ebx
  11f742:	0f 84 e3 19 00 00    	je     12112b <_ZN6system4core2io3out13format_stringEPcPKcS3_+0x1a5b>
  11f748:	84 d2                	test   dl,dl
  11f74a:	0f 84 60 01 00 00    	je     11f8b0 <_ZN6system4core2io3out13format_stringEPcPKcS3_+0x1e0>
  11f750:	80 fa 25             	cmp    dl,0x25
  11f753:	8d 6b 01             	lea    ebp,[ebx+0x1]
  11f756:	0f 85 64 01 00 00    	jne    11f8c0 <_ZN6system4core2io3out13format_stringEPcPKcS3_+0x1f0>
  11f75c:	85 ed                	test   ebp,ebp
  11f75e:	0f 84 ee 19 00 00    	je     121152 <_ZN6system4core2io3out13format_stringEPcPKcS3_+0x1a82>
  11f764:	0f b6 43 01          	movzx  eax,BYTE PTR [ebx+0x1]
  11f768:	3c 25                	cmp    al,0x25
  11f76a:	0f 84 b0 01 00 00    	je     11f920 <_ZN6system4core2io3out13format_stringEPcPKcS3_+0x250>
  11f770:	3c 63                	cmp    al,0x63
  11f772:	0f 84 08 02 00 00    	je     11f980 <_ZN6system4core2io3out13format_stringEPcPKcS3_+0x2b0>
  11f778:	3c 64                	cmp    al,0x64
  11f77a:	0f 84 70 02 00 00    	je     11f9f0 <_ZN6system4core2io3out13format_stringEPcPKcS3_+0x320>
  11f780:	3c 75                	cmp    al,0x75
  11f782:	0f 84 48 05 00 00    	je     11fcd0 <_ZN6system4core2io3out13format_stringEPcPKcS3_+0x600>
  11f788:	3c 78                	cmp    al,0x78
  11f78a:	0f 84 b0 06 00 00    	je     11fe40 <_ZN6system4core2io3out13format_stringEPcPKcS3_+0x770>
  11f790:	3c 32                	cmp    al,0x32
  11f792:	0f 84 c8 03 00 00    	je     11fb60 <_ZN6system4core2io3out13format_stringEPcPKcS3_+0x490>
  11f798:	3c 34                	cmp    al,0x34
  11f79a:	0f 84 30 0a 00 00    	je     1201d0 <_ZN6system4core2io3out13format_stringEPcPKcS3_+0xb00>
  11f7a0:	3c 38                	cmp    al,0x38
  11f7a2:	0f 84 f8 0b 00 00    	je     1203a0 <_ZN6system4core2io3out13format_stringEPcPKcS3_+0xcd0>
  11f7a8:	3c 66                	cmp    al,0x66
  11f7aa:	0f 84 de 19 00 00    	je     12118e <_ZN6system4core2io3out13format_stringEPcPKcS3_+0x1abe>
  11f7b0:	83 c3 02             	add    ebx,0x2
  11f7b3:	3c 73                	cmp    al,0x73
  11f7b5:	0f 85 f5 07 00 00    	jne    11ffb0 <_ZN6system4core2io3out13format_stringEPcPKcS3_+0x8e0>
  11f7bb:	8b 37                	mov    esi,DWORD PTR [edi]
  11f7bd:	8d 47 04             	lea    eax,[edi+0x4]
  11f7c0:	89 44 24 0c          	mov    DWORD PTR [esp+0xc],eax
  11f7c4:	89 c7                	mov    edi,eax
  11f7c6:	85 f6                	test   esi,esi
  11f7c8:	0f 84 42 01 00 00    	je     11f910 <_ZN6system4core2io3out13format_stringEPcPKcS3_+0x240>
  11f7ce:	31 ed                	xor    ebp,ebp
  11f7d0:	80 3e 00             	cmp    BYTE PTR [esi],0x0
  11f7d3:	0f b6 01             	movzx  eax,BYTE PTR [ecx]
  11f7d6:	8d 7e 01             	lea    edi,[esi+0x1]
  11f7d9:	0f 84 9f 11 00 00    	je     12097e <_ZN6system4core2io3out13format_stringEPcPKcS3_+0x12ae>
  11f7df:	90                   	nop
  11f7e0:	83 c5 01             	add    ebp,0x1
  11f7e3:	85 ff                	test   edi,edi
  11f7e5:	89 ea                	mov    edx,ebp
  11f7e7:	0f 84 96 1c 00 00    	je     121483 <_ZN6system4core2io3out13format_stringEPcPKcS3_+0x1db3>
  11f7ed:	83 c7 01             	add    edi,0x1
  11f7f0:	80 7f ff 00          	cmp    BYTE PTR [edi-0x1],0x0
  11f7f4:	75 ea                	jne    11f7e0 <_ZN6system4core2io3out13format_stringEPcPKcS3_+0x110>
  11f7f6:	85 c9                	test   ecx,ecx
  11f7f8:	0f 84 71 12 00 00    	je     120a6f <_ZN6system4core2io3out13format_stringEPcPKcS3_+0x139f>
  11f7fe:	84 c0                	test   al,al
  11f800:	0f 84 41 10 00 00    	je     120847 <_ZN6system4core2io3out13format_stringEPcPKcS3_+0x1177>
  11f806:	8d 69 01             	lea    ebp,[ecx+0x1]
  11f809:	31 c0                	xor    eax,eax
  11f80b:	90                   	nop
  11f80c:	8d 74 26 00          	lea    esi,[esi+eiz*1+0x0]
  11f810:	83 c0 01             	add    eax,0x1
  11f813:	85 ed                	test   ebp,ebp
  11f815:	89 c7                	mov    edi,eax
  11f817:	0f 84 cf 1d 00 00    	je     1215ec <_ZN6system4core2io3out13format_stringEPcPKcS3_+0x1f1c>
  11f81d:	83 c5 01             	add    ebp,0x1
  11f820:	80 7d ff 00          	cmp    BYTE PTR [ebp-0x1],0x0
  11f824:	75 ea                	jne    11f810 <_ZN6system4core2io3out13format_stringEPcPKcS3_+0x140>
  11f826:	01 cf                	add    edi,ecx
  11f828:	85 d2                	test   edx,edx
  11f82a:	8d 2c 16             	lea    ebp,[esi+edx*1]
  11f82d:	74 20                	je     11f84f <_ZN6system4core2io3out13format_stringEPcPKcS3_+0x17f>
  11f82f:	90                   	nop
  11f830:	85 f6                	test   esi,esi
  11f832:	0f 84 09 1e 00 00    	je     121641 <_ZN6system4core2io3out13format_stringEPcPKcS3_+0x1f71>
  11f838:	85 ff                	test   edi,edi
  11f83a:	0f b6 06             	movzx  eax,BYTE PTR [esi]
  11f83d:	0f 84 d7 1d 00 00    	je     12161a <_ZN6system4core2io3out13format_stringEPcPKcS3_+0x1f4a>
  11f843:	83 c6 01             	add    esi,0x1
  11f846:	88 07                	mov    BYTE PTR [edi],al
  11f848:	83 c7 01             	add    edi,0x1
  11f84b:	39 f5                	cmp    ebp,esi
  11f84d:	75 e1                	jne    11f830 <_ZN6system4core2io3out13format_stringEPcPKcS3_+0x160>
  11f84f:	85 c9                	test   ecx,ecx
  11f851:	0f b6 01             	movzx  eax,BYTE PTR [ecx]
  11f854:	0f 84 1b 1e 00 00    	je     121675 <_ZN6system4core2io3out13format_stringEPcPKcS3_+0x1fa5>
  11f85a:	84 c0                	test   al,al
  11f85c:	8d 71 01             	lea    esi,[ecx+0x1]
  11f85f:	89 cd                	mov    ebp,ecx
  11f861:	0f 84 2a 11 00 00    	je     120991 <_ZN6system4core2io3out13format_stringEPcPKcS3_+0x12c1>
  11f867:	89 f6                	mov    esi,esi
  11f869:	8d bc 27 00 00 00 00 	lea    edi,[edi+eiz*1+0x0]
  11f870:	85 f6                	test   esi,esi
  11f872:	89 f7                	mov    edi,esi
  11f874:	0f 84 e5 1d 00 00    	je     12165f <_ZN6system4core2io3out13format_stringEPcPKcS3_+0x1f8f>
  11f87a:	83 c6 01             	add    esi,0x1
  11f87d:	80 7e ff 00          	cmp    BYTE PTR [esi-0x1],0x0
  11f881:	75 ed                	jne    11f870 <_ZN6system4core2io3out13format_stringEPcPKcS3_+0x1a0>
  11f883:	89 e9                	mov    ecx,ebp
  11f885:	85 ff                	test   edi,edi
  11f887:	0f 85 30 04 00 00    	jne    11fcbd <_ZN6system4core2io3out13format_stringEPcPKcS3_+0x5ed>
  11f88d:	89 4c 24 10          	mov    DWORD PTR [esp+0x10],ecx
  11f891:	50                   	push   eax
  11f892:	50                   	push   eax
  11f893:	6a 00                	push   0x0
  11f895:	68 d4 09 10 00       	push   0x1009d4
  11f89a:	e8 41 96 01 00       	call   138ee0 <__ubsan_handle_type_mismatch>
  11f89f:	83 c4 10             	add    esp,0x10
  11f8a2:	8b 4c 24 10          	mov    ecx,DWORD PTR [esp+0x10]
  11f8a6:	e9 12 04 00 00       	jmp    11fcbd <_ZN6system4core2io3out13format_stringEPcPKcS3_+0x5ed>
  11f8ab:	90                   	nop
  11f8ac:	8d 74 26 00          	lea    esi,[esi+eiz*1+0x0]
  11f8b0:	83 c4 2c             	add    esp,0x2c
  11f8b3:	5b                   	pop    ebx
  11f8b4:	5e                   	pop    esi
  11f8b5:	5f                   	pop    edi
  11f8b6:	5d                   	pop    ebp
  11f8b7:	c3                   	ret    
  11f8b8:	90                   	nop
  11f8b9:	8d b4 26 00 00 00 00 	lea    esi,[esi+eiz*1+0x0]
  11f8c0:	85 c9                	test   ecx,ecx
  11f8c2:	0f 84 f0 17 00 00    	je     1210b8 <_ZN6system4core2io3out13format_stringEPcPKcS3_+0x19e8>
  11f8c8:	80 39 00             	cmp    BYTE PTR [ecx],0x0
  11f8cb:	0f 84 0f 01 00 00    	je     11f9e0 <_ZN6system4core2io3out13format_stringEPcPKcS3_+0x310>
  11f8d1:	8d 59 01             	lea    ebx,[ecx+0x1]
  11f8d4:	31 f6                	xor    esi,esi
  11f8d6:	8d 76 00             	lea    esi,[esi+0x0]
  11f8d9:	8d bc 27 00 00 00 00 	lea    edi,[edi+eiz*1+0x0]
  11f8e0:	83 c6 01             	add    esi,0x1
  11f8e3:	85 db                	test   ebx,ebx
  11f8e5:	89 d8                	mov    eax,ebx
  11f8e7:	0f 84 04 19 00 00    	je     1211f1 <_ZN6system4core2io3out13format_stringEPcPKcS3_+0x1b21>
  11f8ed:	83 c3 01             	add    ebx,0x1
  11f8f0:	80 7b ff 00          	cmp    BYTE PTR [ebx-0x1],0x0
  11f8f4:	75 ea                	jne    11f8e0 <_ZN6system4core2io3out13format_stringEPcPKcS3_+0x210>
  11f8f6:	83 c6 01             	add    esi,0x1
  11f8f9:	85 c0                	test   eax,eax
  11f8fb:	0f 84 88 17 00 00    	je     121089 <_ZN6system4core2io3out13format_stringEPcPKcS3_+0x19b9>
  11f901:	01 ce                	add    esi,ecx
  11f903:	88 10                	mov    BYTE PTR [eax],dl
  11f905:	0f 84 05 13 00 00    	je     120c10 <_ZN6system4core2io3out13format_stringEPcPKcS3_+0x1540>
  11f90b:	c6 06 00             	mov    BYTE PTR [esi],0x0
  11f90e:	89 eb                	mov    ebx,ebp
  11f910:	0f b6 13             	movzx  edx,BYTE PTR [ebx]
  11f913:	e9 28 fe ff ff       	jmp    11f740 <_ZN6system4core2io3out13format_stringEPcPKcS3_+0x70>
  11f918:	90                   	nop
  11f919:	8d b4 26 00 00 00 00 	lea    esi,[esi+eiz*1+0x0]
  11f920:	85 c9                	test   ecx,ecx
  11f922:	0f 84 5d 13 00 00    	je     120c85 <_ZN6system4core2io3out13format_stringEPcPKcS3_+0x15b5>
  11f928:	80 39 00             	cmp    BYTE PTR [ecx],0x0
  11f92b:	0f 84 95 0d 00 00    	je     1206c6 <_ZN6system4core2io3out13format_stringEPcPKcS3_+0xff6>
  11f931:	8d 71 01             	lea    esi,[ecx+0x1]
  11f934:	31 ed                	xor    ebp,ebp
  11f936:	8d 76 00             	lea    esi,[esi+0x0]
  11f939:	8d bc 27 00 00 00 00 	lea    edi,[edi+eiz*1+0x0]
  11f940:	83 c5 01             	add    ebp,0x1
  11f943:	85 f6                	test   esi,esi
  11f945:	89 f0                	mov    eax,esi
  11f947:	0f 84 56 13 00 00    	je     120ca3 <_ZN6system4core2io3out13format_stringEPcPKcS3_+0x15d3>
  11f94d:	83 c6 01             	add    esi,0x1
  11f950:	80 7e ff 00          	cmp    BYTE PTR [esi-0x1],0x0
  11f954:	75 ea                	jne    11f940 <_ZN6system4core2io3out13format_stringEPcPKcS3_+0x270>
  11f956:	83 c5 01             	add    ebp,0x1
  11f959:	85 c0                	test   eax,eax
  11f95b:	0f 84 86 13 00 00    	je     120ce7 <_ZN6system4core2io3out13format_stringEPcPKcS3_+0x1617>
  11f961:	01 cd                	add    ebp,ecx
  11f963:	c6 00 25             	mov    BYTE PTR [eax],0x25
  11f966:	0f 84 a1 13 00 00    	je     120d0d <_ZN6system4core2io3out13format_stringEPcPKcS3_+0x163d>
  11f96c:	c6 45 00 00          	mov    BYTE PTR [ebp+0x0],0x0
  11f970:	83 c3 03             	add    ebx,0x3
  11f973:	eb 9b                	jmp    11f910 <_ZN6system4core2io3out13format_stringEPcPKcS3_+0x240>
  11f975:	8d 74 26 00          	lea    esi,[esi+eiz*1+0x0]
  11f979:	8d bc 27 00 00 00 00 	lea    edi,[edi+eiz*1+0x0]
  11f980:	85 c9                	test   ecx,ecx
  11f982:	8d 47 04             	lea    eax,[edi+0x4]
  11f985:	8b 17                	mov    edx,DWORD PTR [edi]
  11f987:	0f 84 36 18 00 00    	je     1211c3 <_ZN6system4core2io3out13format_stringEPcPKcS3_+0x1af3>
  11f98d:	80 39 00             	cmp    BYTE PTR [ecx],0x0
  11f990:	0f 84 30 0e 00 00    	je     1207c6 <_ZN6system4core2io3out13format_stringEPcPKcS3_+0x10f6>
  11f996:	8d 71 01             	lea    esi,[ecx+0x1]
  11f999:	31 ff                	xor    edi,edi
  11f99b:	90                   	nop
  11f99c:	8d 74 26 00          	lea    esi,[esi+eiz*1+0x0]
  11f9a0:	83 c7 01             	add    edi,0x1
  11f9a3:	85 f6                	test   esi,esi
  11f9a5:	89 f5                	mov    ebp,esi
  11f9a7:	0f 84 7e 13 00 00    	je     120d2b <_ZN6system4core2io3out13format_stringEPcPKcS3_+0x165b>
  11f9ad:	83 c6 01             	add    esi,0x1
  11f9b0:	80 7e ff 00          	cmp    BYTE PTR [esi-0x1],0x0
  11f9b4:	75 ea                	jne    11f9a0 <_ZN6system4core2io3out13format_stringEPcPKcS3_+0x2d0>
  11f9b6:	83 c7 01             	add    edi,0x1
  11f9b9:	85 ed                	test   ebp,ebp
  11f9bb:	0f 84 98 13 00 00    	je     120d59 <_ZN6system4core2io3out13format_stringEPcPKcS3_+0x1689>
  11f9c1:	01 cf                	add    edi,ecx
  11f9c3:	88 55 00             	mov    BYTE PTR [ebp+0x0],dl
  11f9c6:	0f 84 13 17 00 00    	je     1210df <_ZN6system4core2io3out13format_stringEPcPKcS3_+0x1a0f>
  11f9cc:	c6 07 00             	mov    BYTE PTR [edi],0x0
  11f9cf:	83 c3 02             	add    ebx,0x2
  11f9d2:	89 c7                	mov    edi,eax
  11f9d4:	e9 37 ff ff ff       	jmp    11f910 <_ZN6system4core2io3out13format_stringEPcPKcS3_+0x240>
  11f9d9:	8d b4 26 00 00 00 00 	lea    esi,[esi+eiz*1+0x0]
  11f9e0:	89 c8                	mov    eax,ecx
  11f9e2:	be 01 00 00 00       	mov    esi,0x1
  11f9e7:	e9 0d ff ff ff       	jmp    11f8f9 <_ZN6system4core2io3out13format_stringEPcPKcS3_+0x229>
  11f9ec:	8d 74 26 00          	lea    esi,[esi+eiz*1+0x0]
  11f9f0:	8b 44 24 40          	mov    eax,DWORD PTR [esp+0x40]
  11f9f4:	89 4c 24 14          	mov    DWORD PTR [esp+0x14],ecx
  11f9f8:	83 ec 04             	sub    esp,0x4
  11f9fb:	83 c0 38             	add    eax,0x38
  11f9fe:	89 44 24 10          	mov    DWORD PTR [esp+0x10],eax
  11fa02:	68 00 10 00 00       	push   0x1000
  11fa07:	6a 00                	push   0x0
  11fa09:	50                   	push   eax
  11fa0a:	e8 91 99 01 00       	call   1393a0 <memset>
  11fa0f:	8b 37                	mov    esi,DWORD PTR [edi]
  11fa11:	8d 47 04             	lea    eax,[edi+0x4]
  11fa14:	89 44 24 20          	mov    DWORD PTR [esp+0x20],eax
  11fa18:	83 c4 10             	add    esp,0x10
  11fa1b:	8b 4c 24 14          	mov    ecx,DWORD PTR [esp+0x14]
  11fa1f:	85 f6                	test   esi,esi
  11fa21:	0f 88 ab 0c 00 00    	js     1206d2 <_ZN6system4core2io3out13format_stringEPcPKcS3_+0x1002>
  11fa27:	85 f6                	test   esi,esi
  11fa29:	0f 85 a1 0b 00 00    	jne    1205d0 <_ZN6system4core2io3out13format_stringEPcPKcS3_+0xf00>
  11fa2f:	8b 44 24 0c          	mov    eax,DWORD PTR [esp+0xc]
  11fa33:	85 c0                	test   eax,eax
  11fa35:	0f 84 8e 12 00 00    	je     120cc9 <_ZN6system4core2io3out13format_stringEPcPKcS3_+0x15f9>
  11fa3b:	8b 44 24 40          	mov    eax,DWORD PTR [esp+0x40]
  11fa3f:	83 f8 c7             	cmp    eax,0xffffffc7
  11fa42:	c6 40 38 30          	mov    BYTE PTR [eax+0x38],0x30
  11fa46:	0f 84 59 17 00 00    	je     1211a5 <_ZN6system4core2io3out13format_stringEPcPKcS3_+0x1ad5>
  11fa4c:	8b 44 24 40          	mov    eax,DWORD PTR [esp+0x40]
  11fa50:	c6 40 39 00          	mov    BYTE PTR [eax+0x39],0x0
  11fa54:	8b 74 24 0c          	mov    esi,DWORD PTR [esp+0xc]
  11fa58:	83 c3 02             	add    ebx,0x2
  11fa5b:	8b 7c 24 10          	mov    edi,DWORD PTR [esp+0x10]
  11fa5f:	85 f6                	test   esi,esi
  11fa61:	0f 84 a9 fe ff ff    	je     11f910 <_ZN6system4core2io3out13format_stringEPcPKcS3_+0x240>
  11fa67:	8b 54 24 40          	mov    edx,DWORD PTR [esp+0x40]
  11fa6b:	0f b6 01             	movzx  eax,BYTE PTR [ecx]
  11fa6e:	80 7a 38 00          	cmp    BYTE PTR [edx+0x38],0x0
  11fa72:	0f 84 4f 0e 00 00    	je     1208c7 <_ZN6system4core2io3out13format_stringEPcPKcS3_+0x11f7>
  11fa78:	8b 54 24 40          	mov    edx,DWORD PTR [esp+0x40]
  11fa7c:	31 ff                	xor    edi,edi
  11fa7e:	8d 72 39             	lea    esi,[edx+0x39]
  11fa81:	eb 0d                	jmp    11fa90 <_ZN6system4core2io3out13format_stringEPcPKcS3_+0x3c0>
  11fa83:	90                   	nop
  11fa84:	90                   	nop
  11fa85:	90                   	nop
  11fa86:	90                   	nop
  11fa87:	90                   	nop
  11fa88:	90                   	nop
  11fa89:	90                   	nop
  11fa8a:	90                   	nop
  11fa8b:	90                   	nop
  11fa8c:	90                   	nop
  11fa8d:	90                   	nop
  11fa8e:	90                   	nop
  11fa8f:	90                   	nop
  11fa90:	83 c7 01             	add    edi,0x1
  11fa93:	85 f6                	test   esi,esi
  11fa95:	89 fd                	mov    ebp,edi
  11fa97:	0f 84 39 14 00 00    	je     120ed6 <_ZN6system4core2io3out13format_stringEPcPKcS3_+0x1806>
  11fa9d:	83 c6 01             	add    esi,0x1
  11faa0:	80 7e ff 00          	cmp    BYTE PTR [esi-0x1],0x0
  11faa4:	75 ea                	jne    11fa90 <_ZN6system4core2io3out13format_stringEPcPKcS3_+0x3c0>
  11faa6:	85 c9                	test   ecx,ecx
  11faa8:	0f 84 4f 14 00 00    	je     120efd <_ZN6system4core2io3out13format_stringEPcPKcS3_+0x182d>
  11faae:	84 c0                	test   al,al
  11fab0:	0f 84 24 0e 00 00    	je     1208da <_ZN6system4core2io3out13format_stringEPcPKcS3_+0x120a>
  11fab6:	8d 79 01             	lea    edi,[ecx+0x1]
  11fab9:	31 c0                	xor    eax,eax
  11fabb:	90                   	nop
  11fabc:	8d 74 26 00          	lea    esi,[esi+eiz*1+0x0]
  11fac0:	83 c0 01             	add    eax,0x1
  11fac3:	85 ff                	test   edi,edi
  11fac5:	89 c6                	mov    esi,eax
  11fac7:	0f 84 c3 14 00 00    	je     120f90 <_ZN6system4core2io3out13format_stringEPcPKcS3_+0x18c0>
  11facd:	83 c7 01             	add    edi,0x1
  11fad0:	80 7f ff 00          	cmp    BYTE PTR [edi-0x1],0x0
  11fad4:	75 ea                	jne    11fac0 <_ZN6system4core2io3out13format_stringEPcPKcS3_+0x3f0>
  11fad6:	85 ed                	test   ebp,ebp
  11fad8:	74 35                	je     11fb0f <_ZN6system4core2io3out13format_stringEPcPKcS3_+0x43f>
  11fada:	8b 7c 24 0c          	mov    edi,DWORD PTR [esp+0xc]
  11fade:	01 ce                	add    esi,ecx
  11fae0:	01 fd                	add    ebp,edi
  11fae2:	8d b4 26 00 00 00 00 	lea    esi,[esi+eiz*1+0x0]
  11fae9:	8d bc 27 00 00 00 00 	lea    edi,[edi+eiz*1+0x0]
  11faf0:	85 ff                	test   edi,edi
  11faf2:	0f 84 7a 14 00 00    	je     120f72 <_ZN6system4core2io3out13format_stringEPcPKcS3_+0x18a2>
  11faf8:	85 f6                	test   esi,esi
  11fafa:	0f b6 07             	movzx  eax,BYTE PTR [edi]
  11fafd:	0f 84 48 14 00 00    	je     120f4b <_ZN6system4core2io3out13format_stringEPcPKcS3_+0x187b>
  11fb03:	83 c7 01             	add    edi,0x1
  11fb06:	88 06                	mov    BYTE PTR [esi],al
  11fb08:	83 c6 01             	add    esi,0x1
  11fb0b:	39 fd                	cmp    ebp,edi
  11fb0d:	75 e1                	jne    11faf0 <_ZN6system4core2io3out13format_stringEPcPKcS3_+0x420>
  11fb0f:	85 c9                	test   ecx,ecx
  11fb11:	0f b6 01             	movzx  eax,BYTE PTR [ecx]
  11fb14:	0f 84 48 13 00 00    	je     120e62 <_ZN6system4core2io3out13format_stringEPcPKcS3_+0x1792>
  11fb1a:	84 c0                	test   al,al
  11fb1c:	8d 71 01             	lea    esi,[ecx+0x1]
  11fb1f:	89 cd                	mov    ebp,ecx
  11fb21:	0f 84 99 0d 00 00    	je     1208c0 <_ZN6system4core2io3out13format_stringEPcPKcS3_+0x11f0>
  11fb27:	89 f6                	mov    esi,esi
  11fb29:	8d bc 27 00 00 00 00 	lea    edi,[edi+eiz*1+0x0]
  11fb30:	85 f6                	test   esi,esi
  11fb32:	89 f7                	mov    edi,esi
  11fb34:	0f 84 12 13 00 00    	je     120e4c <_ZN6system4core2io3out13format_stringEPcPKcS3_+0x177c>
  11fb3a:	83 c6 01             	add    esi,0x1
  11fb3d:	80 7e ff 00          	cmp    BYTE PTR [esi-0x1],0x0
  11fb41:	75 ed                	jne    11fb30 <_ZN6system4core2io3out13format_stringEPcPKcS3_+0x460>
  11fb43:	89 e9                	mov    ecx,ebp
  11fb45:	85 ff                	test   edi,edi
  11fb47:	0f 84 e1 12 00 00    	je     120e2e <_ZN6system4core2io3out13format_stringEPcPKcS3_+0x175e>
  11fb4d:	c6 07 00             	mov    BYTE PTR [edi],0x0
  11fb50:	8b 7c 24 10          	mov    edi,DWORD PTR [esp+0x10]
  11fb54:	e9 b7 fd ff ff       	jmp    11f910 <_ZN6system4core2io3out13format_stringEPcPKcS3_+0x240>
  11fb59:	8d b4 26 00 00 00 00 	lea    esi,[esi+eiz*1+0x0]
  11fb60:	83 fb fe             	cmp    ebx,0xfffffffe
  11fb63:	0f 84 07 16 00 00    	je     121170 <_ZN6system4core2io3out13format_stringEPcPKcS3_+0x1aa0>
  11fb69:	0f b6 53 02          	movzx  edx,BYTE PTR [ebx+0x2]
  11fb6d:	89 d0                	mov    eax,edx
  11fb6f:	83 e0 df             	and    eax,0xffffffdf
  11fb72:	3c 58                	cmp    al,0x58
  11fb74:	0f 85 8a 04 00 00    	jne    120004 <_ZN6system4core2io3out13format_stringEPcPKcS3_+0x934>
  11fb7a:	8b 44 24 40          	mov    eax,DWORD PTR [esp+0x40]
  11fb7e:	89 4c 24 10          	mov    DWORD PTR [esp+0x10],ecx
  11fb82:	83 ec 04             	sub    esp,0x4
  11fb85:	68 00 10 00 00       	push   0x1000
  11fb8a:	6a 00                	push   0x0
  11fb8c:	8d 70 38             	lea    esi,[eax+0x38]
  11fb8f:	56                   	push   esi
  11fb90:	e8 0b 98 01 00       	call   1393a0 <memset>
  11fb95:	8d 47 04             	lea    eax,[edi+0x4]
  11fb98:	8b 3f                	mov    edi,DWORD PTR [edi]
  11fb9a:	89 44 24 1c          	mov    DWORD PTR [esp+0x1c],eax
  11fb9e:	83 c4 10             	add    esp,0x10
  11fba1:	85 f6                	test   esi,esi
  11fba3:	8b 4c 24 10          	mov    ecx,DWORD PTR [esp+0x10]
  11fba7:	0f 84 49 10 00 00    	je     120bf6 <_ZN6system4core2io3out13format_stringEPcPKcS3_+0x1526>
  11fbad:	89 f8                	mov    eax,edi
  11fbaf:	8b 6c 24 40          	mov    ebp,DWORD PTR [esp+0x40]
  11fbb3:	8b 54 24 40          	mov    edx,DWORD PTR [esp+0x40]
  11fbb7:	c1 e8 04             	shr    eax,0x4
  11fbba:	83 e7 0f             	and    edi,0xf
  11fbbd:	83 e0 0f             	and    eax,0xf
  11fbc0:	0f b6 80 00 e0 10 00 	movzx  eax,BYTE PTR [eax+0x10e000]
  11fbc7:	83 c5 39             	add    ebp,0x39
  11fbca:	88 42 38             	mov    BYTE PTR [edx+0x38],al
  11fbcd:	0f b6 97 00 e0 10 00 	movzx  edx,BYTE PTR [edi+0x10e000]
  11fbd4:	0f 84 54 10 00 00    	je     120c2e <_ZN6system4core2io3out13format_stringEPcPKcS3_+0x155e>
  11fbda:	8b 7c 24 40          	mov    edi,DWORD PTR [esp+0x40]
  11fbde:	83 c3 03             	add    ebx,0x3
  11fbe1:	85 f6                	test   esi,esi
  11fbe3:	88 57 39             	mov    BYTE PTR [edi+0x39],dl
  11fbe6:	8b 7c 24 0c          	mov    edi,DWORD PTR [esp+0xc]
  11fbea:	0f 84 20 fd ff ff    	je     11f910 <_ZN6system4core2io3out13format_stringEPcPKcS3_+0x240>
  11fbf0:	0f b6 11             	movzx  edx,BYTE PTR [ecx]
  11fbf3:	89 ef                	mov    edi,ebp
  11fbf5:	31 ed                	xor    ebp,ebp
  11fbf7:	84 c0                	test   al,al
  11fbf9:	88 54 24 10          	mov    BYTE PTR [esp+0x10],dl
  11fbfd:	0f 84 25 0d 00 00    	je     120928 <_ZN6system4core2io3out13format_stringEPcPKcS3_+0x1258>
  11fc03:	8d b6 00 00 00 00    	lea    esi,[esi+0x0]
  11fc09:	8d bc 27 00 00 00 00 	lea    edi,[edi+eiz*1+0x0]
  11fc10:	83 c5 01             	add    ebp,0x1
  11fc13:	85 ff                	test   edi,edi
  11fc15:	89 ea                	mov    edx,ebp
  11fc17:	0f 84 c4 1e 00 00    	je     121ae1 <_ZN6system4core2io3out13format_stringEPcPKcS3_+0x2411>
  11fc1d:	83 c7 01             	add    edi,0x1
  11fc20:	80 7f ff 00          	cmp    BYTE PTR [edi-0x1],0x0
  11fc24:	75 ea                	jne    11fc10 <_ZN6system4core2io3out13format_stringEPcPKcS3_+0x540>
  11fc26:	85 c9                	test   ecx,ecx
  11fc28:	0f 84 f2 15 00 00    	je     121220 <_ZN6system4core2io3out13format_stringEPcPKcS3_+0x1b50>
  11fc2e:	80 7c 24 10 00       	cmp    BYTE PTR [esp+0x10],0x0
  11fc33:	0f 84 1f 0d 00 00    	je     120958 <_ZN6system4core2io3out13format_stringEPcPKcS3_+0x1288>
  11fc39:	8d 69 01             	lea    ebp,[ecx+0x1]
  11fc3c:	31 c0                	xor    eax,eax
  11fc3e:	66 90                	xchg   ax,ax
  11fc40:	83 c0 01             	add    eax,0x1
  11fc43:	85 ed                	test   ebp,ebp
  11fc45:	89 c7                	mov    edi,eax
  11fc47:	0f 84 b6 1b 00 00    	je     121803 <_ZN6system4core2io3out13format_stringEPcPKcS3_+0x2133>
  11fc4d:	83 c5 01             	add    ebp,0x1
  11fc50:	80 7d ff 00          	cmp    BYTE PTR [ebp-0x1],0x0
  11fc54:	75 ea                	jne    11fc40 <_ZN6system4core2io3out13format_stringEPcPKcS3_+0x570>
  11fc56:	01 cf                	add    edi,ecx
  11fc58:	85 d2                	test   edx,edx
  11fc5a:	8d 2c 16             	lea    ebp,[esi+edx*1]
  11fc5d:	74 20                	je     11fc7f <_ZN6system4core2io3out13format_stringEPcPKcS3_+0x5af>
  11fc5f:	90                   	nop
  11fc60:	85 f6                	test   esi,esi
  11fc62:	0f 84 7d 1b 00 00    	je     1217e5 <_ZN6system4core2io3out13format_stringEPcPKcS3_+0x2115>
  11fc68:	85 ff                	test   edi,edi
  11fc6a:	0f b6 06             	movzx  eax,BYTE PTR [esi]
  11fc6d:	0f 84 17 0f 00 00    	je     120b8a <_ZN6system4core2io3out13format_stringEPcPKcS3_+0x14ba>
  11fc73:	83 c6 01             	add    esi,0x1
  11fc76:	88 07                	mov    BYTE PTR [edi],al
  11fc78:	83 c7 01             	add    edi,0x1
  11fc7b:	39 f5                	cmp    ebp,esi
  11fc7d:	75 e1                	jne    11fc60 <_ZN6system4core2io3out13format_stringEPcPKcS3_+0x590>
  11fc7f:	85 c9                	test   ecx,ecx
  11fc81:	0f b6 01             	movzx  eax,BYTE PTR [ecx]
  11fc84:	0f 84 d9 0e 00 00    	je     120b63 <_ZN6system4core2io3out13format_stringEPcPKcS3_+0x1493>
  11fc8a:	84 c0                	test   al,al
  11fc8c:	8d 71 01             	lea    esi,[ecx+0x1]
  11fc8f:	89 cd                	mov    ebp,ecx
  11fc91:	0f 84 ae 0c 00 00    	je     120945 <_ZN6system4core2io3out13format_stringEPcPKcS3_+0x1275>
  11fc97:	89 f6                	mov    esi,esi
  11fc99:	8d bc 27 00 00 00 00 	lea    edi,[edi+eiz*1+0x0]
  11fca0:	85 f6                	test   esi,esi
  11fca2:	89 f7                	mov    edi,esi
  11fca4:	0f 84 26 1c 00 00    	je     1218d0 <_ZN6system4core2io3out13format_stringEPcPKcS3_+0x2200>
  11fcaa:	83 c6 01             	add    esi,0x1
  11fcad:	80 7e ff 00          	cmp    BYTE PTR [esi-0x1],0x0
  11fcb1:	75 ed                	jne    11fca0 <_ZN6system4core2io3out13format_stringEPcPKcS3_+0x5d0>
  11fcb3:	89 e9                	mov    ecx,ebp
  11fcb5:	85 ff                	test   edi,edi
  11fcb7:	0f 84 88 0e 00 00    	je     120b45 <_ZN6system4core2io3out13format_stringEPcPKcS3_+0x1475>
  11fcbd:	c6 07 00             	mov    BYTE PTR [edi],0x0
  11fcc0:	8b 7c 24 0c          	mov    edi,DWORD PTR [esp+0xc]
  11fcc4:	e9 47 fc ff ff       	jmp    11f910 <_ZN6system4core2io3out13format_stringEPcPKcS3_+0x240>
  11fcc9:	8d b4 26 00 00 00 00 	lea    esi,[esi+eiz*1+0x0]
  11fcd0:	8b 44 24 40          	mov    eax,DWORD PTR [esp+0x40]
  11fcd4:	89 4c 24 14          	mov    DWORD PTR [esp+0x14],ecx
  11fcd8:	83 ec 04             	sub    esp,0x4
  11fcdb:	83 c0 38             	add    eax,0x38
  11fcde:	89 44 24 10          	mov    DWORD PTR [esp+0x10],eax
  11fce2:	68 00 10 00 00       	push   0x1000
  11fce7:	6a 00                	push   0x0
  11fce9:	50                   	push   eax
  11fcea:	e8 b1 96 01 00       	call   1393a0 <memset>
  11fcef:	8b 37                	mov    esi,DWORD PTR [edi]
  11fcf1:	8d 47 04             	lea    eax,[edi+0x4]
  11fcf4:	89 44 24 20          	mov    DWORD PTR [esp+0x20],eax
  11fcf8:	83 c4 10             	add    esp,0x10
  11fcfb:	8b 4c 24 14          	mov    ecx,DWORD PTR [esp+0x14]
  11fcff:	85 f6                	test   esi,esi
  11fd01:	0f 85 69 03 00 00    	jne    120070 <_ZN6system4core2io3out13format_stringEPcPKcS3_+0x9a0>
  11fd07:	8b 44 24 0c          	mov    eax,DWORD PTR [esp+0xc]
  11fd0b:	85 c0                	test   eax,eax
  11fd0d:	0f 84 a5 11 00 00    	je     120eb8 <_ZN6system4core2io3out13format_stringEPcPKcS3_+0x17e8>
  11fd13:	8b 44 24 40          	mov    eax,DWORD PTR [esp+0x40]
  11fd17:	83 f8 c7             	cmp    eax,0xffffffc7
  11fd1a:	c6 40 38 30          	mov    BYTE PTR [eax+0x38],0x30
  11fd1e:	0f 84 aa 1c 00 00    	je     1219ce <_ZN6system4core2io3out13format_stringEPcPKcS3_+0x22fe>
  11fd24:	8b 44 24 40          	mov    eax,DWORD PTR [esp+0x40]
  11fd28:	c6 40 39 00          	mov    BYTE PTR [eax+0x39],0x0
  11fd2c:	8b 74 24 0c          	mov    esi,DWORD PTR [esp+0xc]
  11fd30:	83 c3 02             	add    ebx,0x2
  11fd33:	8b 7c 24 10          	mov    edi,DWORD PTR [esp+0x10]
  11fd37:	85 f6                	test   esi,esi
  11fd39:	0f 84 d1 fb ff ff    	je     11f910 <_ZN6system4core2io3out13format_stringEPcPKcS3_+0x240>
  11fd3f:	8b 54 24 40          	mov    edx,DWORD PTR [esp+0x40]
  11fd43:	0f b6 01             	movzx  eax,BYTE PTR [ecx]
  11fd46:	80 7a 38 00          	cmp    BYTE PTR [edx+0x38],0x0
  11fd4a:	0f 84 98 0b 00 00    	je     1208e8 <_ZN6system4core2io3out13format_stringEPcPKcS3_+0x1218>
  11fd50:	8b 54 24 40          	mov    edx,DWORD PTR [esp+0x40]
  11fd54:	31 ff                	xor    edi,edi
  11fd56:	8d 72 39             	lea    esi,[edx+0x39]
  11fd59:	8d b4 26 00 00 00 00 	lea    esi,[esi+eiz*1+0x0]
  11fd60:	83 c7 01             	add    edi,0x1
  11fd63:	85 f6                	test   esi,esi
  11fd65:	89 fd                	mov    ebp,edi
  11fd67:	0f 84 b7 11 00 00    	je     120f24 <_ZN6system4core2io3out13format_stringEPcPKcS3_+0x1854>
  11fd6d:	83 c6 01             	add    esi,0x1
  11fd70:	80 7e ff 00          	cmp    BYTE PTR [esi-0x1],0x0
  11fd74:	75 ea                	jne    11fd60 <_ZN6system4core2io3out13format_stringEPcPKcS3_+0x690>
  11fd76:	85 c9                	test   ecx,ecx
  11fd78:	0f 84 27 10 00 00    	je     120da5 <_ZN6system4core2io3out13format_stringEPcPKcS3_+0x16d5>
  11fd7e:	84 c0                	test   al,al
  11fd80:	0f 84 88 0b 00 00    	je     12090e <_ZN6system4core2io3out13format_stringEPcPKcS3_+0x123e>
  11fd86:	8d 79 01             	lea    edi,[ecx+0x1]
  11fd89:	31 c0                	xor    eax,eax
  11fd8b:	90                   	nop
  11fd8c:	8d 74 26 00          	lea    esi,[esi+eiz*1+0x0]
  11fd90:	83 c0 01             	add    eax,0x1
  11fd93:	85 ff                	test   edi,edi
  11fd95:	89 c6                	mov    esi,eax
  11fd97:	0f 84 ac 0c 00 00    	je     120a49 <_ZN6system4core2io3out13format_stringEPcPKcS3_+0x1379>
  11fd9d:	83 c7 01             	add    edi,0x1
  11fda0:	80 7f ff 00          	cmp    BYTE PTR [edi-0x1],0x0
  11fda4:	75 ea                	jne    11fd90 <_ZN6system4core2io3out13format_stringEPcPKcS3_+0x6c0>
  11fda6:	85 ed                	test   ebp,ebp
  11fda8:	74 35                	je     11fddf <_ZN6system4core2io3out13format_stringEPcPKcS3_+0x70f>
  11fdaa:	8b 7c 24 0c          	mov    edi,DWORD PTR [esp+0xc]
  11fdae:	01 ce                	add    esi,ecx
  11fdb0:	01 fd                	add    ebp,edi
  11fdb2:	8d b4 26 00 00 00 00 	lea    esi,[esi+eiz*1+0x0]
  11fdb9:	8d bc 27 00 00 00 00 	lea    edi,[edi+eiz*1+0x0]
  11fdc0:	85 ff                	test   edi,edi
  11fdc2:	0f 84 63 0c 00 00    	je     120a2b <_ZN6system4core2io3out13format_stringEPcPKcS3_+0x135b>
  11fdc8:	85 f6                	test   esi,esi
  11fdca:	0f b6 07             	movzx  eax,BYTE PTR [edi]
  11fdcd:	0f 84 31 0c 00 00    	je     120a04 <_ZN6system4core2io3out13format_stringEPcPKcS3_+0x1334>
  11fdd3:	83 c7 01             	add    edi,0x1
  11fdd6:	88 06                	mov    BYTE PTR [esi],al
  11fdd8:	83 c6 01             	add    esi,0x1
  11fddb:	39 fd                	cmp    ebp,edi
  11fddd:	75 e1                	jne    11fdc0 <_ZN6system4core2io3out13format_stringEPcPKcS3_+0x6f0>
  11fddf:	85 c9                	test   ecx,ecx
  11fde1:	0f b6 01             	movzx  eax,BYTE PTR [ecx]
  11fde4:	0f 84 f3 0b 00 00    	je     1209dd <_ZN6system4core2io3out13format_stringEPcPKcS3_+0x130d>
  11fdea:	84 c0                	test   al,al
  11fdec:	8d 71 01             	lea    esi,[ecx+0x1]
  11fdef:	89 cd                	mov    ebp,ecx
  11fdf1:	0f 84 ea 0a 00 00    	je     1208e1 <_ZN6system4core2io3out13format_stringEPcPKcS3_+0x1211>
  11fdf7:	89 f6                	mov    esi,esi
  11fdf9:	8d bc 27 00 00 00 00 	lea    edi,[edi+eiz*1+0x0]
  11fe00:	85 f6                	test   esi,esi
  11fe02:	89 f7                	mov    edi,esi
  11fe04:	0f 84 fd 1c 00 00    	je     121b07 <_ZN6system4core2io3out13format_stringEPcPKcS3_+0x2437>
  11fe0a:	83 c6 01             	add    esi,0x1
  11fe0d:	80 7e ff 00          	cmp    BYTE PTR [esi-0x1],0x0
  11fe11:	75 ed                	jne    11fe00 <_ZN6system4core2io3out13format_stringEPcPKcS3_+0x730>
  11fe13:	89 e9                	mov    ecx,ebp
  11fe15:	85 ff                	test   edi,edi
  11fe17:	0f 85 30 fd ff ff    	jne    11fb4d <_ZN6system4core2io3out13format_stringEPcPKcS3_+0x47d>
  11fe1d:	89 4c 24 0c          	mov    DWORD PTR [esp+0xc],ecx
  11fe21:	56                   	push   esi
  11fe22:	56                   	push   esi
  11fe23:	6a 00                	push   0x0
  11fe25:	68 54 11 10 00       	push   0x101154
  11fe2a:	e8 b1 90 01 00       	call   138ee0 <__ubsan_handle_type_mismatch>
  11fe2f:	83 c4 10             	add    esp,0x10
  11fe32:	8b 4c 24 0c          	mov    ecx,DWORD PTR [esp+0xc]
  11fe36:	e9 12 fd ff ff       	jmp    11fb4d <_ZN6system4core2io3out13format_stringEPcPKcS3_+0x47d>
  11fe3b:	90                   	nop
  11fe3c:	8d 74 26 00          	lea    esi,[esi+eiz*1+0x0]
  11fe40:	8b 44 24 40          	mov    eax,DWORD PTR [esp+0x40]
  11fe44:	89 4c 24 14          	mov    DWORD PTR [esp+0x14],ecx
  11fe48:	83 ec 04             	sub    esp,0x4
  11fe4b:	83 c0 38             	add    eax,0x38
  11fe4e:	89 44 24 10          	mov    DWORD PTR [esp+0x10],eax
  11fe52:	68 00 10 00 00       	push   0x1000
  11fe57:	6a 00                	push   0x0
  11fe59:	50                   	push   eax
  11fe5a:	e8 41 95 01 00       	call   1393a0 <memset>
  11fe5f:	8b 37                	mov    esi,DWORD PTR [edi]
  11fe61:	8d 47 04             	lea    eax,[edi+0x4]
  11fe64:	89 44 24 20          	mov    DWORD PTR [esp+0x20],eax
  11fe68:	83 c4 10             	add    esp,0x10
  11fe6b:	8b 4c 24 14          	mov    ecx,DWORD PTR [esp+0x14]
  11fe6f:	85 f6                	test   esi,esi
  11fe71:	0f 85 ef 02 00 00    	jne    120166 <_ZN6system4core2io3out13format_stringEPcPKcS3_+0xa96>
  11fe77:	8b 74 24 0c          	mov    esi,DWORD PTR [esp+0xc]
  11fe7b:	85 f6                	test   esi,esi
  11fe7d:	0f 84 8d 0f 00 00    	je     120e10 <_ZN6system4core2io3out13format_stringEPcPKcS3_+0x1740>
  11fe83:	8b 44 24 40          	mov    eax,DWORD PTR [esp+0x40]
  11fe87:	83 f8 c7             	cmp    eax,0xffffffc7
  11fe8a:	c6 40 38 30          	mov    BYTE PTR [eax+0x38],0x30
  11fe8e:	0f 84 5e 0f 00 00    	je     120df2 <_ZN6system4core2io3out13format_stringEPcPKcS3_+0x1722>
  11fe94:	8b 44 24 40          	mov    eax,DWORD PTR [esp+0x40]
  11fe98:	c6 40 39 00          	mov    BYTE PTR [eax+0x39],0x0
  11fe9c:	8b 44 24 0c          	mov    eax,DWORD PTR [esp+0xc]
  11fea0:	83 c3 02             	add    ebx,0x2
  11fea3:	8b 7c 24 10          	mov    edi,DWORD PTR [esp+0x10]
  11fea7:	85 c0                	test   eax,eax
  11fea9:	0f 84 61 fa ff ff    	je     11f910 <_ZN6system4core2io3out13format_stringEPcPKcS3_+0x240>
  11feaf:	8b 44 24 40          	mov    eax,DWORD PTR [esp+0x40]
  11feb3:	0f b6 11             	movzx  edx,BYTE PTR [ecx]
  11feb6:	80 78 38 00          	cmp    BYTE PTR [eax+0x38],0x0
  11feba:	0f 84 55 0a 00 00    	je     120915 <_ZN6system4core2io3out13format_stringEPcPKcS3_+0x1245>
  11fec0:	8b 44 24 40          	mov    eax,DWORD PTR [esp+0x40]
  11fec4:	31 ff                	xor    edi,edi
  11fec6:	89 d5                	mov    ebp,edx
  11fec8:	8d 70 39             	lea    esi,[eax+0x39]
  11fecb:	90                   	nop
  11fecc:	8d 74 26 00          	lea    esi,[esi+eiz*1+0x0]
  11fed0:	83 c7 01             	add    edi,0x1
  11fed3:	85 f6                	test   esi,esi
  11fed5:	89 f8                	mov    eax,edi
  11fed7:	0f 84 ef 0e 00 00    	je     120dcc <_ZN6system4core2io3out13format_stringEPcPKcS3_+0x16fc>
  11fedd:	83 c6 01             	add    esi,0x1
  11fee0:	80 7e ff 00          	cmp    BYTE PTR [esi-0x1],0x0
  11fee4:	75 ea                	jne    11fed0 <_ZN6system4core2io3out13format_stringEPcPKcS3_+0x800>
  11fee6:	85 c9                	test   ecx,ecx
  11fee8:	89 ea                	mov    edx,ebp
  11feea:	0f 84 a4 1b 00 00    	je     121a94 <_ZN6system4core2io3out13format_stringEPcPKcS3_+0x23c4>
  11fef0:	84 d2                	test   dl,dl
  11fef2:	0f 84 46 0a 00 00    	je     12093e <_ZN6system4core2io3out13format_stringEPcPKcS3_+0x126e>
  11fef8:	8d 79 01             	lea    edi,[ecx+0x1]
  11fefb:	31 ed                	xor    ebp,ebp
  11fefd:	8d 76 00             	lea    esi,[esi+0x0]
  11ff00:	83 c5 01             	add    ebp,0x1
  11ff03:	85 ff                	test   edi,edi
  11ff05:	89 ee                	mov    esi,ebp
  11ff07:	0f 84 61 1b 00 00    	je     121a6e <_ZN6system4core2io3out13format_stringEPcPKcS3_+0x239e>
  11ff0d:	83 c7 01             	add    edi,0x1
  11ff10:	80 7f ff 00          	cmp    BYTE PTR [edi-0x1],0x0
  11ff14:	75 ea                	jne    11ff00 <_ZN6system4core2io3out13format_stringEPcPKcS3_+0x830>
  11ff16:	85 c0                	test   eax,eax
  11ff18:	74 35                	je     11ff4f <_ZN6system4core2io3out13format_stringEPcPKcS3_+0x87f>
  11ff1a:	8b 7c 24 0c          	mov    edi,DWORD PTR [esp+0xc]
  11ff1e:	01 ce                	add    esi,ecx
  11ff20:	8d 2c 07             	lea    ebp,[edi+eax*1]
  11ff23:	8d b6 00 00 00 00    	lea    esi,[esi+0x0]
  11ff29:	8d bc 27 00 00 00 00 	lea    edi,[edi+eiz*1+0x0]
  11ff30:	85 ff                	test   edi,edi
  11ff32:	0f 84 18 1b 00 00    	je     121a50 <_ZN6system4core2io3out13format_stringEPcPKcS3_+0x2380>
  11ff38:	85 f6                	test   esi,esi
  11ff3a:	0f b6 07             	movzx  eax,BYTE PTR [edi]
  11ff3d:	0f 84 e6 1a 00 00    	je     121a29 <_ZN6system4core2io3out13format_stringEPcPKcS3_+0x2359>
  11ff43:	83 c7 01             	add    edi,0x1
  11ff46:	88 06                	mov    BYTE PTR [esi],al
  11ff48:	83 c6 01             	add    esi,0x1
  11ff4b:	39 fd                	cmp    ebp,edi
  11ff4d:	75 e1                	jne    11ff30 <_ZN6system4core2io3out13format_stringEPcPKcS3_+0x860>
  11ff4f:	85 c9                	test   ecx,ecx
  11ff51:	0f b6 01             	movzx  eax,BYTE PTR [ecx]
  11ff54:	0f 84 a8 1a 00 00    	je     121a02 <_ZN6system4core2io3out13format_stringEPcPKcS3_+0x2332>
  11ff5a:	84 c0                	test   al,al
  11ff5c:	8d 71 01             	lea    esi,[ecx+0x1]
  11ff5f:	89 cd                	mov    ebp,ecx
  11ff61:	0f 84 a0 09 00 00    	je     120907 <_ZN6system4core2io3out13format_stringEPcPKcS3_+0x1237>
  11ff67:	89 f6                	mov    esi,esi
  11ff69:	8d bc 27 00 00 00 00 	lea    edi,[edi+eiz*1+0x0]
  11ff70:	85 f6                	test   esi,esi
  11ff72:	89 f7                	mov    edi,esi
  11ff74:	0f 84 72 1a 00 00    	je     1219ec <_ZN6system4core2io3out13format_stringEPcPKcS3_+0x231c>
  11ff7a:	83 c6 01             	add    esi,0x1
  11ff7d:	80 7e ff 00          	cmp    BYTE PTR [esi-0x1],0x0
  11ff81:	75 ed                	jne    11ff70 <_ZN6system4core2io3out13format_stringEPcPKcS3_+0x8a0>
  11ff83:	89 e9                	mov    ecx,ebp
  11ff85:	85 ff                	test   edi,edi
  11ff87:	0f 85 c0 fb ff ff    	jne    11fb4d <_ZN6system4core2io3out13format_stringEPcPKcS3_+0x47d>
  11ff8d:	89 4c 24 0c          	mov    DWORD PTR [esp+0xc],ecx
  11ff91:	50                   	push   eax
  11ff92:	50                   	push   eax
  11ff93:	6a 00                	push   0x0
  11ff95:	68 a4 0f 10 00       	push   0x100fa4
  11ff9a:	e8 41 8f 01 00       	call   138ee0 <__ubsan_handle_type_mismatch>
  11ff9f:	83 c4 10             	add    esp,0x10
  11ffa2:	8b 4c 24 0c          	mov    ecx,DWORD PTR [esp+0xc]
  11ffa6:	e9 a2 fb ff ff       	jmp    11fb4d <_ZN6system4core2io3out13format_stringEPcPKcS3_+0x47d>
  11ffab:	90                   	nop
  11ffac:	8d 74 26 00          	lea    esi,[esi+eiz*1+0x0]
  11ffb0:	85 c9                	test   ecx,ecx
  11ffb2:	0f 84 65 1b 00 00    	je     121b1d <_ZN6system4core2io3out13format_stringEPcPKcS3_+0x244d>
  11ffb8:	80 39 00             	cmp    BYTE PTR [ecx],0x0
  11ffbb:	0f 84 3a 09 00 00    	je     1208fb <_ZN6system4core2io3out13format_stringEPcPKcS3_+0x122b>
  11ffc1:	8d 71 01             	lea    esi,[ecx+0x1]
  11ffc4:	31 ed                	xor    ebp,ebp
  11ffc6:	8d 76 00             	lea    esi,[esi+0x0]
  11ffc9:	8d bc 27 00 00 00 00 	lea    edi,[edi+eiz*1+0x0]
  11ffd0:	83 c5 01             	add    ebp,0x1
  11ffd3:	85 f6                	test   esi,esi
  11ffd5:	89 f2                	mov    edx,esi
  11ffd7:	0f 84 b4 1b 00 00    	je     121b91 <_ZN6system4core2io3out13format_stringEPcPKcS3_+0x24c1>
  11ffdd:	83 c6 01             	add    esi,0x1
  11ffe0:	80 7e ff 00          	cmp    BYTE PTR [esi-0x1],0x0
  11ffe4:	75 ea                	jne    11ffd0 <_ZN6system4core2io3out13format_stringEPcPKcS3_+0x900>
  11ffe6:	83 c5 01             	add    ebp,0x1
  11ffe9:	85 d2                	test   edx,edx
  11ffeb:	0f 84 71 1b 00 00    	je     121b62 <_ZN6system4core2io3out13format_stringEPcPKcS3_+0x2492>
  11fff1:	01 cd                	add    ebp,ecx
  11fff3:	88 02                	mov    BYTE PTR [edx],al
  11fff5:	0f 84 49 1b 00 00    	je     121b44 <_ZN6system4core2io3out13format_stringEPcPKcS3_+0x2474>
  11fffb:	c6 45 00 00          	mov    BYTE PTR [ebp+0x0],0x0
  11ffff:	e9 0c f9 ff ff       	jmp    11f910 <_ZN6system4core2io3out13format_stringEPcPKcS3_+0x240>
  120004:	85 c9                	test   ecx,ecx
  120006:	0f 84 09 19 00 00    	je     121915 <_ZN6system4core2io3out13format_stringEPcPKcS3_+0x2245>
  12000c:	80 39 00             	cmp    BYTE PTR [ecx],0x0
  12000f:	0f 84 37 09 00 00    	je     12094c <_ZN6system4core2io3out13format_stringEPcPKcS3_+0x127c>
  120015:	8d 71 01             	lea    esi,[ecx+0x1]
  120018:	31 ed                	xor    ebp,ebp
  12001a:	8d b6 00 00 00 00    	lea    esi,[esi+0x0]
  120020:	83 c5 01             	add    ebp,0x1
  120023:	85 f6                	test   esi,esi
  120025:	89 f0                	mov    eax,esi
  120027:	0f 84 b9 18 00 00    	je     1218e6 <_ZN6system4core2io3out13format_stringEPcPKcS3_+0x2216>
  12002d:	83 c6 01             	add    esi,0x1
  120030:	80 7e ff 00          	cmp    BYTE PTR [esi-0x1],0x0
  120034:	75 ea                	jne    120020 <_ZN6system4core2io3out13format_stringEPcPKcS3_+0x950>
  120036:	83 c5 01             	add    ebp,0x1
  120039:	85 c0                	test   eax,eax
  12003b:	0f 84 d5 0a 00 00    	je     120b16 <_ZN6system4core2io3out13format_stringEPcPKcS3_+0x1446>
  120041:	01 cd                	add    ebp,ecx
  120043:	88 10                	mov    BYTE PTR [eax],dl
  120045:	0f 85 21 f9 ff ff    	jne    11f96c <_ZN6system4core2io3out13format_stringEPcPKcS3_+0x29c>
  12004b:	89 4c 24 0c          	mov    DWORD PTR [esp+0xc],ecx
  12004f:	50                   	push   eax
  120050:	50                   	push   eax
  120051:	6a 00                	push   0x0
  120053:	68 2c 0f 10 00       	push   0x100f2c
  120058:	e8 83 8e 01 00       	call   138ee0 <__ubsan_handle_type_mismatch>
  12005d:	83 c4 10             	add    esp,0x10
  120060:	8b 4c 24 0c          	mov    ecx,DWORD PTR [esp+0xc]
  120064:	e9 03 f9 ff ff       	jmp    11f96c <_ZN6system4core2io3out13format_stringEPcPKcS3_+0x29c>
  120069:	8d b4 26 00 00 00 00 	lea    esi,[esi+eiz*1+0x0]
  120070:	8b 6c 24 0c          	mov    ebp,DWORD PTR [esp+0xc]
  120074:	31 c0                	xor    eax,eax
  120076:	89 4c 24 44          	mov    DWORD PTR [esp+0x44],ecx
  12007a:	89 c1                	mov    ecx,eax
  12007c:	89 ef                	mov    edi,ebp
  12007e:	66 90                	xchg   ax,ax
  120080:	b8 cd cc cc cc       	mov    eax,0xcccccccd
  120085:	f7 e6                	mul    esi
  120087:	c1 ea 03             	shr    edx,0x3
  12008a:	8d 04 92             	lea    eax,[edx+edx*4]
  12008d:	89 f2                	mov    edx,esi
  12008f:	01 c0                	add    eax,eax
  120091:	29 c2                	sub    edx,eax
  120093:	89 d0                	mov    eax,edx
  120095:	83 c0 30             	add    eax,0x30
  120098:	85 ed                	test   ebp,ebp
  12009a:	0f 84 07 19 00 00    	je     1219a7 <_ZN6system4core2io3out13format_stringEPcPKcS3_+0x22d7>
  1200a0:	88 45 00             	mov    BYTE PTR [ebp+0x0],al
  1200a3:	b8 cd cc cc cc       	mov    eax,0xcccccccd
  1200a8:	83 c1 01             	add    ecx,0x1
  1200ab:	f7 e6                	mul    esi
  1200ad:	83 c5 01             	add    ebp,0x1
  1200b0:	89 d6                	mov    esi,edx
  1200b2:	c1 ee 03             	shr    esi,0x3
  1200b5:	85 f6                	test   esi,esi
  1200b7:	75 c7                	jne    120080 <_ZN6system4core2io3out13format_stringEPcPKcS3_+0x9b0>
  1200b9:	89 c8                	mov    eax,ecx
  1200bb:	03 44 24 0c          	add    eax,DWORD PTR [esp+0xc]
  1200bf:	8b 4c 24 44          	mov    ecx,DWORD PTR [esp+0x44]
  1200c3:	89 c6                	mov    esi,eax
  1200c5:	0f 84 be 18 00 00    	je     121989 <_ZN6system4core2io3out13format_stringEPcPKcS3_+0x22b9>
  1200cb:	8b 44 24 0c          	mov    eax,DWORD PTR [esp+0xc]
  1200cf:	c6 06 00             	mov    BYTE PTR [esi],0x0
  1200d2:	85 c0                	test   eax,eax
  1200d4:	0f 84 91 18 00 00    	je     12196b <_ZN6system4core2io3out13format_stringEPcPKcS3_+0x229b>
  1200da:	8b 44 24 40          	mov    eax,DWORD PTR [esp+0x40]
  1200de:	8b 54 24 40          	mov    edx,DWORD PTR [esp+0x40]
  1200e2:	31 ed                	xor    ebp,ebp
  1200e4:	0f b6 40 38          	movzx  eax,BYTE PTR [eax+0x38]
  1200e8:	8d 72 39             	lea    esi,[edx+0x39]
  1200eb:	84 c0                	test   al,al
  1200ed:	75 13                	jne    120102 <_ZN6system4core2io3out13format_stringEPcPKcS3_+0xa32>
  1200ef:	e9 38 fc ff ff       	jmp    11fd2c <_ZN6system4core2io3out13format_stringEPcPKcS3_+0x65c>
  1200f4:	8d b6 00 00 00 00    	lea    esi,[esi+0x0]
  1200fa:	8d bf 00 00 00 00    	lea    edi,[edi+0x0]
  120100:	89 d5                	mov    ebp,edx
  120102:	85 f6                	test   esi,esi
  120104:	8d 55 01             	lea    edx,[ebp+0x1]
  120107:	0f 84 2f 18 00 00    	je     12193c <_ZN6system4core2io3out13format_stringEPcPKcS3_+0x226c>
  12010d:	83 c6 01             	add    esi,0x1
  120110:	80 7e ff 00          	cmp    BYTE PTR [esi-0x1],0x0
  120114:	75 ea                	jne    120100 <_ZN6system4core2io3out13format_stringEPcPKcS3_+0xa30>
  120116:	85 ed                	test   ebp,ebp
  120118:	0f 8e 0e fc ff ff    	jle    11fd2c <_ZN6system4core2io3out13format_stringEPcPKcS3_+0x65c>
  12011e:	8b 54 24 0c          	mov    edx,DWORD PTR [esp+0xc]
  120122:	89 5c 24 48          	mov    DWORD PTR [esp+0x48],ebx
  120126:	8d 34 2a             	lea    esi,[edx+ebp*1]
  120129:	31 d2                	xor    edx,edx
  12012b:	eb 06                	jmp    120133 <_ZN6system4core2io3out13format_stringEPcPKcS3_+0xa63>
  12012d:	8d 76 00             	lea    esi,[esi+0x0]
  120130:	0f b6 07             	movzx  eax,BYTE PTR [edi]
  120133:	85 ff                	test   edi,edi
  120135:	0f 84 ac 09 00 00    	je     120ae7 <_ZN6system4core2io3out13format_stringEPcPKcS3_+0x1417>
  12013b:	85 f6                	test   esi,esi
  12013d:	0f 84 75 09 00 00    	je     120ab8 <_ZN6system4core2io3out13format_stringEPcPKcS3_+0x13e8>
  120143:	0f b6 1e             	movzx  ebx,BYTE PTR [esi]
  120146:	83 c2 01             	add    edx,0x1
  120149:	83 c7 01             	add    edi,0x1
  12014c:	83 ee 01             	sub    esi,0x1
  12014f:	88 5f ff             	mov    BYTE PTR [edi-0x1],bl
  120152:	88 46 01             	mov    BYTE PTR [esi+0x1],al
  120155:	89 e8                	mov    eax,ebp
  120157:	29 d0                	sub    eax,edx
  120159:	39 c2                	cmp    edx,eax
  12015b:	7c d3                	jl     120130 <_ZN6system4core2io3out13format_stringEPcPKcS3_+0xa60>
  12015d:	8b 5c 24 48          	mov    ebx,DWORD PTR [esp+0x48]
  120161:	e9 c6 fb ff ff       	jmp    11fd2c <_ZN6system4core2io3out13format_stringEPcPKcS3_+0x65c>
  120166:	8b 6c 24 0c          	mov    ebp,DWORD PTR [esp+0xc]
  12016a:	31 d2                	xor    edx,edx
  12016c:	89 ef                	mov    edi,ebp
  12016e:	eb 1f                	jmp    12018f <_ZN6system4core2io3out13format_stringEPcPKcS3_+0xabf>
  120170:	83 c0 57             	add    eax,0x57
  120173:	85 ed                	test   ebp,ebp
  120175:	0f 84 23 09 00 00    	je     120a9e <_ZN6system4core2io3out13format_stringEPcPKcS3_+0x13ce>
  12017b:	c1 ee 04             	shr    esi,0x4
  12017e:	88 45 00             	mov    BYTE PTR [ebp+0x0],al
  120181:	83 c2 01             	add    edx,0x1
  120184:	83 c5 01             	add    ebp,0x1
  120187:	85 f6                	test   esi,esi
  120189:	0f 84 96 05 00 00    	je     120725 <_ZN6system4core2io3out13format_stringEPcPKcS3_+0x1055>
  12018f:	89 f0                	mov    eax,esi
  120191:	83 e0 0f             	and    eax,0xf
  120194:	83 f8 09             	cmp    eax,0x9
  120197:	77 d7                	ja     120170 <_ZN6system4core2io3out13format_stringEPcPKcS3_+0xaa0>
  120199:	83 c0 30             	add    eax,0x30
  12019c:	85 ed                	test   ebp,ebp
  12019e:	75 db                	jne    12017b <_ZN6system4core2io3out13format_stringEPcPKcS3_+0xaab>
  1201a0:	89 54 24 18          	mov    DWORD PTR [esp+0x18],edx
  1201a4:	89 4c 24 1c          	mov    DWORD PTR [esp+0x1c],ecx
  1201a8:	88 44 24 14          	mov    BYTE PTR [esp+0x14],al
  1201ac:	52                   	push   edx
  1201ad:	52                   	push   edx
  1201ae:	6a 00                	push   0x0
  1201b0:	68 24 11 10 00       	push   0x101124
  1201b5:	e8 26 8d 01 00       	call   138ee0 <__ubsan_handle_type_mismatch>
  1201ba:	83 c4 10             	add    esp,0x10
  1201bd:	8b 4c 24 1c          	mov    ecx,DWORD PTR [esp+0x1c]
  1201c1:	8b 54 24 18          	mov    edx,DWORD PTR [esp+0x18]
  1201c5:	0f b6 44 24 14       	movzx  eax,BYTE PTR [esp+0x14]
  1201ca:	eb af                	jmp    12017b <_ZN6system4core2io3out13format_stringEPcPKcS3_+0xaab>
  1201cc:	8d 74 26 00          	lea    esi,[esi+eiz*1+0x0]
  1201d0:	83 fb fe             	cmp    ebx,0xfffffffe
  1201d3:	0f 84 cf 13 00 00    	je     1215a8 <_ZN6system4core2io3out13format_stringEPcPKcS3_+0x1ed8>
  1201d9:	0f b6 53 02          	movzx  edx,BYTE PTR [ebx+0x2]
  1201dd:	89 d0                	mov    eax,edx
  1201df:	83 e0 df             	and    eax,0xffffffdf
  1201e2:	3c 58                	cmp    al,0x58
  1201e4:	0f 85 e8 05 00 00    	jne    1207d2 <_ZN6system4core2io3out13format_stringEPcPKcS3_+0x1102>
  1201ea:	8b 44 24 40          	mov    eax,DWORD PTR [esp+0x40]
  1201ee:	89 4c 24 14          	mov    DWORD PTR [esp+0x14],ecx
  1201f2:	83 ec 04             	sub    esp,0x4
  1201f5:	8d 68 38             	lea    ebp,[eax+0x38]
  1201f8:	89 6c 24 14          	mov    DWORD PTR [esp+0x14],ebp
  1201fc:	68 00 10 00 00       	push   0x1000
  120201:	6a 00                	push   0x0
  120203:	55                   	push   ebp
  120204:	e8 97 91 01 00       	call   1393a0 <memset>
  120209:	8d 47 04             	lea    eax,[edi+0x4]
  12020c:	8b 37                	mov    esi,DWORD PTR [edi]
  12020e:	89 44 24 1c          	mov    DWORD PTR [esp+0x1c],eax
  120212:	83 c4 10             	add    esp,0x10
  120215:	85 ed                	test   ebp,ebp
  120217:	8b 4c 24 14          	mov    ecx,DWORD PTR [esp+0x14]
  12021b:	0f 84 6d 13 00 00    	je     12158e <_ZN6system4core2io3out13format_stringEPcPKcS3_+0x1ebe>
  120221:	89 f0                	mov    eax,esi
  120223:	8b 6c 24 40          	mov    ebp,DWORD PTR [esp+0x40]
  120227:	c1 e8 0c             	shr    eax,0xc
  12022a:	83 e0 0f             	and    eax,0xf
  12022d:	0f b6 90 00 e0 10 00 	movzx  edx,BYTE PTR [eax+0x10e000]
  120234:	8b 44 24 40          	mov    eax,DWORD PTR [esp+0x40]
  120238:	88 50 38             	mov    BYTE PTR [eax+0x38],dl
  12023b:	89 f0                	mov    eax,esi
  12023d:	0f b6 c4             	movzx  eax,ah
  120240:	83 e0 0f             	and    eax,0xf
  120243:	83 c5 39             	add    ebp,0x39
  120246:	0f b6 80 00 e0 10 00 	movzx  eax,BYTE PTR [eax+0x10e000]
  12024d:	0f 84 0b 13 00 00    	je     12155e <_ZN6system4core2io3out13format_stringEPcPKcS3_+0x1e8e>
  120253:	8b 7c 24 40          	mov    edi,DWORD PTR [esp+0x40]
  120257:	88 47 39             	mov    BYTE PTR [edi+0x39],al
  12025a:	89 f0                	mov    eax,esi
  12025c:	c1 e8 04             	shr    eax,0x4
  12025f:	83 e0 0f             	and    eax,0xf
  120262:	83 ff c6             	cmp    edi,0xffffffc6
  120265:	0f b6 80 00 e0 10 00 	movzx  eax,BYTE PTR [eax+0x10e000]
  12026c:	0f 84 bc 12 00 00    	je     12152e <_ZN6system4core2io3out13format_stringEPcPKcS3_+0x1e5e>
  120272:	8b 7c 24 40          	mov    edi,DWORD PTR [esp+0x40]
  120276:	83 e6 0f             	and    esi,0xf
  120279:	83 ff c5             	cmp    edi,0xffffffc5
  12027c:	88 47 3a             	mov    BYTE PTR [edi+0x3a],al
  12027f:	0f b6 86 00 e0 10 00 	movzx  eax,BYTE PTR [esi+0x10e000]
  120286:	0f 84 26 12 00 00    	je     1214b2 <_ZN6system4core2io3out13format_stringEPcPKcS3_+0x1de2>
  12028c:	8b 74 24 10          	mov    esi,DWORD PTR [esp+0x10]
  120290:	8b 7c 24 40          	mov    edi,DWORD PTR [esp+0x40]
  120294:	83 c3 03             	add    ebx,0x3
  120297:	85 f6                	test   esi,esi
  120299:	88 47 3b             	mov    BYTE PTR [edi+0x3b],al
  12029c:	8b 7c 24 0c          	mov    edi,DWORD PTR [esp+0xc]
  1202a0:	0f 84 6a f6 ff ff    	je     11f910 <_ZN6system4core2io3out13format_stringEPcPKcS3_+0x240>
  1202a6:	31 f6                	xor    esi,esi
  1202a8:	84 d2                	test   dl,dl
  1202aa:	0f b6 39             	movzx  edi,BYTE PTR [ecx]
  1202ad:	0f 84 e5 06 00 00    	je     120998 <_ZN6system4core2io3out13format_stringEPcPKcS3_+0x12c8>
  1202b3:	8d b6 00 00 00 00    	lea    esi,[esi+0x0]
  1202b9:	8d bc 27 00 00 00 00 	lea    edi,[edi+eiz*1+0x0]
  1202c0:	83 c6 01             	add    esi,0x1
  1202c3:	85 ed                	test   ebp,ebp
  1202c5:	89 f0                	mov    eax,esi
  1202c7:	0f 84 3b 12 00 00    	je     121508 <_ZN6system4core2io3out13format_stringEPcPKcS3_+0x1e38>
  1202cd:	83 c5 01             	add    ebp,0x1
  1202d0:	80 7d ff 00          	cmp    BYTE PTR [ebp-0x1],0x0
  1202d4:	75 ea                	jne    1202c0 <_ZN6system4core2io3out13format_stringEPcPKcS3_+0xbf0>
  1202d6:	85 c9                	test   ecx,ecx
  1202d8:	0f 84 04 12 00 00    	je     1214e2 <_ZN6system4core2io3out13format_stringEPcPKcS3_+0x1e12>
  1202de:	89 fa                	mov    edx,edi
  1202e0:	84 d2                	test   dl,dl
  1202e2:	0f 84 58 05 00 00    	je     120840 <_ZN6system4core2io3out13format_stringEPcPKcS3_+0x1170>
  1202e8:	8d 79 01             	lea    edi,[ecx+0x1]
  1202eb:	31 ed                	xor    ebp,ebp
  1202ed:	8d 76 00             	lea    esi,[esi+0x0]
  1202f0:	83 c5 01             	add    ebp,0x1
  1202f3:	85 ff                	test   edi,edi
  1202f5:	89 ee                	mov    esi,ebp
  1202f7:	0f 84 c9 12 00 00    	je     1215c6 <_ZN6system4core2io3out13format_stringEPcPKcS3_+0x1ef6>
  1202fd:	83 c7 01             	add    edi,0x1
  120300:	80 7f ff 00          	cmp    BYTE PTR [edi-0x1],0x0
  120304:	75 ea                	jne    1202f0 <_ZN6system4core2io3out13format_stringEPcPKcS3_+0xc20>
  120306:	85 c0                	test   eax,eax
  120308:	74 35                	je     12033f <_ZN6system4core2io3out13format_stringEPcPKcS3_+0xc6f>
  12030a:	8b 7c 24 10          	mov    edi,DWORD PTR [esp+0x10]
  12030e:	01 ce                	add    esi,ecx
  120310:	8d 2c 07             	lea    ebp,[edi+eax*1]
  120313:	8d b6 00 00 00 00    	lea    esi,[esi+0x0]
  120319:	8d bc 27 00 00 00 00 	lea    edi,[edi+eiz*1+0x0]
  120320:	85 ff                	test   edi,edi
  120322:	0f 84 c2 13 00 00    	je     1216ea <_ZN6system4core2io3out13format_stringEPcPKcS3_+0x201a>
  120328:	85 f6                	test   esi,esi
  12032a:	0f b6 07             	movzx  eax,BYTE PTR [edi]
  12032d:	0f 84 90 13 00 00    	je     1216c3 <_ZN6system4core2io3out13format_stringEPcPKcS3_+0x1ff3>
  120333:	83 c7 01             	add    edi,0x1
  120336:	88 06                	mov    BYTE PTR [esi],al
  120338:	83 c6 01             	add    esi,0x1
  12033b:	39 fd                	cmp    ebp,edi
  12033d:	75 e1                	jne    120320 <_ZN6system4core2io3out13format_stringEPcPKcS3_+0xc50>
  12033f:	85 c9                	test   ecx,ecx
  120341:	0f b6 01             	movzx  eax,BYTE PTR [ecx]
  120344:	0f 84 93 0c 00 00    	je     120fdd <_ZN6system4core2io3out13format_stringEPcPKcS3_+0x190d>
  12034a:	84 c0                	test   al,al
  12034c:	8d 71 01             	lea    esi,[ecx+0x1]
  12034f:	89 cd                	mov    ebp,ecx
  120351:	0f 84 14 06 00 00    	je     12096b <_ZN6system4core2io3out13format_stringEPcPKcS3_+0x129b>
  120357:	89 f6                	mov    esi,esi
  120359:	8d bc 27 00 00 00 00 	lea    edi,[edi+eiz*1+0x0]
  120360:	85 f6                	test   esi,esi
  120362:	89 f7                	mov    edi,esi
  120364:	0f 84 c7 14 00 00    	je     121831 <_ZN6system4core2io3out13format_stringEPcPKcS3_+0x2161>
  12036a:	83 c6 01             	add    esi,0x1
  12036d:	80 7e ff 00          	cmp    BYTE PTR [esi-0x1],0x0
  120371:	75 ed                	jne    120360 <_ZN6system4core2io3out13format_stringEPcPKcS3_+0xc90>
  120373:	89 e9                	mov    ecx,ebp
  120375:	85 ff                	test   edi,edi
  120377:	0f 85 40 f9 ff ff    	jne    11fcbd <_ZN6system4core2io3out13format_stringEPcPKcS3_+0x5ed>
  12037d:	89 4c 24 10          	mov    DWORD PTR [esp+0x10],ecx
  120381:	56                   	push   esi
  120382:	56                   	push   esi
  120383:	6a 00                	push   0x0
  120385:	68 a4 0c 10 00       	push   0x100ca4
  12038a:	e8 51 8b 01 00       	call   138ee0 <__ubsan_handle_type_mismatch>
  12038f:	83 c4 10             	add    esp,0x10
  120392:	8b 4c 24 10          	mov    ecx,DWORD PTR [esp+0x10]
  120396:	e9 22 f9 ff ff       	jmp    11fcbd <_ZN6system4core2io3out13format_stringEPcPKcS3_+0x5ed>
  12039b:	90                   	nop
  12039c:	8d 74 26 00          	lea    esi,[esi+eiz*1+0x0]
  1203a0:	83 fb fe             	cmp    ebx,0xfffffffe
  1203a3:	0f 84 2f 08 00 00    	je     120bd8 <_ZN6system4core2io3out13format_stringEPcPKcS3_+0x1508>
  1203a9:	0f b6 53 02          	movzx  edx,BYTE PTR [ebx+0x2]
  1203ad:	89 d0                	mov    eax,edx
  1203af:	83 e0 df             	and    eax,0xffffffdf
  1203b2:	3c 58                	cmp    al,0x58
  1203b4:	0f 85 94 04 00 00    	jne    12084e <_ZN6system4core2io3out13format_stringEPcPKcS3_+0x117e>
  1203ba:	8b 44 24 40          	mov    eax,DWORD PTR [esp+0x40]
  1203be:	89 4c 24 10          	mov    DWORD PTR [esp+0x10],ecx
  1203c2:	83 ec 04             	sub    esp,0x4
  1203c5:	68 00 10 00 00       	push   0x1000
  1203ca:	6a 00                	push   0x0
  1203cc:	8d 70 38             	lea    esi,[eax+0x38]
  1203cf:	56                   	push   esi
  1203d0:	e8 cb 8f 01 00       	call   1393a0 <memset>
  1203d5:	8d 47 04             	lea    eax,[edi+0x4]
  1203d8:	8b 3f                	mov    edi,DWORD PTR [edi]
  1203da:	89 44 24 1c          	mov    DWORD PTR [esp+0x1c],eax
  1203de:	83 c4 10             	add    esp,0x10
  1203e1:	85 f6                	test   esi,esi
  1203e3:	8b 4c 24 10          	mov    ecx,DWORD PTR [esp+0x10]
  1203e7:	0f 84 42 13 00 00    	je     12172f <_ZN6system4core2io3out13format_stringEPcPKcS3_+0x205f>
  1203ed:	89 f8                	mov    eax,edi
  1203ef:	8b 54 24 40          	mov    edx,DWORD PTR [esp+0x40]
  1203f3:	c1 e8 1c             	shr    eax,0x1c
  1203f6:	0f b6 80 00 e0 10 00 	movzx  eax,BYTE PTR [eax+0x10e000]
  1203fd:	89 d5                	mov    ebp,edx
  1203ff:	88 44 24 10          	mov    BYTE PTR [esp+0x10],al
  120403:	88 42 38             	mov    BYTE PTR [edx+0x38],al
  120406:	89 f8                	mov    eax,edi
  120408:	c1 e8 18             	shr    eax,0x18
  12040b:	83 e0 0f             	and    eax,0xf
  12040e:	83 c5 39             	add    ebp,0x39
  120411:	0f b6 80 00 e0 10 00 	movzx  eax,BYTE PTR [eax+0x10e000]
  120418:	0f 84 ea 12 00 00    	je     121708 <_ZN6system4core2io3out13format_stringEPcPKcS3_+0x2038>
  12041e:	8b 54 24 40          	mov    edx,DWORD PTR [esp+0x40]
  120422:	88 42 39             	mov    BYTE PTR [edx+0x39],al
  120425:	89 f8                	mov    eax,edi
  120427:	c1 e8 14             	shr    eax,0x14
  12042a:	83 e0 0f             	and    eax,0xf
  12042d:	83 fa c6             	cmp    edx,0xffffffc6
  120430:	0f b6 80 00 e0 10 00 	movzx  eax,BYTE PTR [eax+0x10e000]
  120437:	0f 84 81 13 00 00    	je     1217be <_ZN6system4core2io3out13format_stringEPcPKcS3_+0x20ee>
  12043d:	8b 54 24 40          	mov    edx,DWORD PTR [esp+0x40]
  120441:	88 42 3a             	mov    BYTE PTR [edx+0x3a],al
  120444:	89 f8                	mov    eax,edi
  120446:	c1 e8 10             	shr    eax,0x10
  120449:	83 e0 0f             	and    eax,0xf
  12044c:	83 fa c5             	cmp    edx,0xffffffc5
  12044f:	0f b6 80 00 e0 10 00 	movzx  eax,BYTE PTR [eax+0x10e000]
  120456:	0f 84 3b 13 00 00    	je     121797 <_ZN6system4core2io3out13format_stringEPcPKcS3_+0x20c7>
  12045c:	8b 54 24 40          	mov    edx,DWORD PTR [esp+0x40]
  120460:	88 42 3b             	mov    BYTE PTR [edx+0x3b],al
  120463:	89 f8                	mov    eax,edi
  120465:	c1 e8 0c             	shr    eax,0xc
  120468:	83 e0 0f             	and    eax,0xf
  12046b:	83 fa c4             	cmp    edx,0xffffffc4
  12046e:	0f b6 80 00 e0 10 00 	movzx  eax,BYTE PTR [eax+0x10e000]
  120475:	0f 84 f5 12 00 00    	je     121770 <_ZN6system4core2io3out13format_stringEPcPKcS3_+0x20a0>
  12047b:	8b 54 24 40          	mov    edx,DWORD PTR [esp+0x40]
  12047f:	88 42 3c             	mov    BYTE PTR [edx+0x3c],al
  120482:	89 f8                	mov    eax,edi
  120484:	0f b6 c4             	movzx  eax,ah
  120487:	83 e0 0f             	and    eax,0xf
  12048a:	83 fa c3             	cmp    edx,0xffffffc3
  12048d:	0f b6 80 00 e0 10 00 	movzx  eax,BYTE PTR [eax+0x10e000]
  120494:	0f 84 af 12 00 00    	je     121749 <_ZN6system4core2io3out13format_stringEPcPKcS3_+0x2079>
  12049a:	8b 54 24 40          	mov    edx,DWORD PTR [esp+0x40]
  12049e:	88 42 3d             	mov    BYTE PTR [edx+0x3d],al
  1204a1:	89 f8                	mov    eax,edi
  1204a3:	c1 e8 04             	shr    eax,0x4
  1204a6:	83 e0 0f             	and    eax,0xf
  1204a9:	83 fa c2             	cmp    edx,0xffffffc2
  1204ac:	0f b6 80 00 e0 10 00 	movzx  eax,BYTE PTR [eax+0x10e000]
  1204b3:	0f 84 aa 17 00 00    	je     121c63 <_ZN6system4core2io3out13format_stringEPcPKcS3_+0x2593>
  1204b9:	8b 54 24 40          	mov    edx,DWORD PTR [esp+0x40]
  1204bd:	83 e7 0f             	and    edi,0xf
  1204c0:	83 fa c1             	cmp    edx,0xffffffc1
  1204c3:	88 42 3e             	mov    BYTE PTR [edx+0x3e],al
  1204c6:	0f b6 87 00 e0 10 00 	movzx  eax,BYTE PTR [edi+0x10e000]
  1204cd:	0f 84 69 17 00 00    	je     121c3c <_ZN6system4core2io3out13format_stringEPcPKcS3_+0x256c>
  1204d3:	8b 54 24 40          	mov    edx,DWORD PTR [esp+0x40]
  1204d7:	83 c3 03             	add    ebx,0x3
  1204da:	85 f6                	test   esi,esi
  1204dc:	8b 7c 24 0c          	mov    edi,DWORD PTR [esp+0xc]
  1204e0:	88 42 3f             	mov    BYTE PTR [edx+0x3f],al
  1204e3:	0f 84 27 f4 ff ff    	je     11f910 <_ZN6system4core2io3out13format_stringEPcPKcS3_+0x240>
  1204e9:	0f b6 01             	movzx  eax,BYTE PTR [ecx]
  1204ec:	89 ef                	mov    edi,ebp
  1204ee:	31 ed                	xor    ebp,ebp
  1204f0:	80 7c 24 10 00       	cmp    BYTE PTR [esp+0x10],0x0
  1204f5:	88 44 24 14          	mov    BYTE PTR [esp+0x14],al
  1204f9:	0f 84 c1 04 00 00    	je     1209c0 <_ZN6system4core2io3out13format_stringEPcPKcS3_+0x12f0>
  1204ff:	90                   	nop
  120500:	83 c5 01             	add    ebp,0x1
  120503:	85 ff                	test   edi,edi
  120505:	89 ea                	mov    edx,ebp
  120507:	0f 84 09 17 00 00    	je     121c16 <_ZN6system4core2io3out13format_stringEPcPKcS3_+0x2546>
  12050d:	83 c7 01             	add    edi,0x1
  120510:	80 7f ff 00          	cmp    BYTE PTR [edi-0x1],0x0
  120514:	75 ea                	jne    120500 <_ZN6system4core2io3out13format_stringEPcPKcS3_+0xe30>
  120516:	85 c9                	test   ecx,ecx
  120518:	0f 84 b1 17 00 00    	je     121ccf <_ZN6system4core2io3out13format_stringEPcPKcS3_+0x25ff>
  12051e:	80 7c 24 14 00       	cmp    BYTE PTR [esp+0x14],0x0
  120523:	0f 84 ad 04 00 00    	je     1209d6 <_ZN6system4core2io3out13format_stringEPcPKcS3_+0x1306>
  120529:	8d 69 01             	lea    ebp,[ecx+0x1]
  12052c:	31 c0                	xor    eax,eax
  12052e:	66 90                	xchg   ax,ax
  120530:	83 c0 01             	add    eax,0x1
  120533:	85 ed                	test   ebp,ebp
  120535:	89 c7                	mov    edi,eax
  120537:	0f 84 31 13 00 00    	je     12186e <_ZN6system4core2io3out13format_stringEPcPKcS3_+0x219e>
  12053d:	83 c5 01             	add    ebp,0x1
  120540:	80 7d ff 00          	cmp    BYTE PTR [ebp-0x1],0x0
  120544:	75 ea                	jne    120530 <_ZN6system4core2io3out13format_stringEPcPKcS3_+0xe60>
  120546:	01 cf                	add    edi,ecx
  120548:	85 d2                	test   edx,edx
  12054a:	8d 2c 16             	lea    ebp,[esi+edx*1]
  12054d:	74 20                	je     12056f <_ZN6system4core2io3out13format_stringEPcPKcS3_+0xe9f>
  12054f:	90                   	nop
  120550:	85 f6                	test   esi,esi
  120552:	0f 84 59 17 00 00    	je     121cb1 <_ZN6system4core2io3out13format_stringEPcPKcS3_+0x25e1>
  120558:	85 ff                	test   edi,edi
  12055a:	0f b6 06             	movzx  eax,BYTE PTR [esi]
  12055d:	0f 84 27 17 00 00    	je     121c8a <_ZN6system4core2io3out13format_stringEPcPKcS3_+0x25ba>
  120563:	83 c6 01             	add    esi,0x1
  120566:	88 07                	mov    BYTE PTR [edi],al
  120568:	83 c7 01             	add    edi,0x1
  12056b:	39 f5                	cmp    ebp,esi
  12056d:	75 e1                	jne    120550 <_ZN6system4core2io3out13format_stringEPcPKcS3_+0xe80>
  12056f:	85 c9                	test   ecx,ecx
  120571:	0f b6 01             	movzx  eax,BYTE PTR [ecx]
  120574:	0f 84 cd 12 00 00    	je     121847 <_ZN6system4core2io3out13format_stringEPcPKcS3_+0x2177>
  12057a:	84 c0                	test   al,al
  12057c:	8d 71 01             	lea    esi,[ecx+0x1]
  12057f:	89 cd                	mov    ebp,ecx
  120581:	0f 84 26 04 00 00    	je     1209ad <_ZN6system4core2io3out13format_stringEPcPKcS3_+0x12dd>
  120587:	89 f6                	mov    esi,esi
  120589:	8d bc 27 00 00 00 00 	lea    edi,[edi+eiz*1+0x0]
  120590:	85 f6                	test   esi,esi
  120592:	89 f7                	mov    edi,esi
  120594:	0f 84 02 13 00 00    	je     12189c <_ZN6system4core2io3out13format_stringEPcPKcS3_+0x21cc>
  12059a:	83 c6 01             	add    esi,0x1
  12059d:	80 7e ff 00          	cmp    BYTE PTR [esi-0x1],0x0
  1205a1:	75 ed                	jne    120590 <_ZN6system4core2io3out13format_stringEPcPKcS3_+0xec0>
  1205a3:	89 e9                	mov    ecx,ebp
  1205a5:	85 ff                	test   edi,edi
  1205a7:	0f 85 10 f7 ff ff    	jne    11fcbd <_ZN6system4core2io3out13format_stringEPcPKcS3_+0x5ed>
  1205ad:	89 4c 24 10          	mov    DWORD PTR [esp+0x10],ecx
  1205b1:	50                   	push   eax
  1205b2:	50                   	push   eax
  1205b3:	6a 00                	push   0x0
  1205b5:	68 ac 0a 10 00       	push   0x100aac
  1205ba:	e8 21 89 01 00       	call   138ee0 <__ubsan_handle_type_mismatch>
  1205bf:	83 c4 10             	add    esp,0x10
  1205c2:	8b 4c 24 10          	mov    ecx,DWORD PTR [esp+0x10]
  1205c6:	e9 f2 f6 ff ff       	jmp    11fcbd <_ZN6system4core2io3out13format_stringEPcPKcS3_+0x5ed>
  1205cb:	90                   	nop
  1205cc:	8d 74 26 00          	lea    esi,[esi+eiz*1+0x0]
  1205d0:	8b 6c 24 0c          	mov    ebp,DWORD PTR [esp+0xc]
  1205d4:	31 c0                	xor    eax,eax
  1205d6:	89 4c 24 44          	mov    DWORD PTR [esp+0x44],ecx
  1205da:	89 c1                	mov    ecx,eax
  1205dc:	89 ef                	mov    edi,ebp
  1205de:	66 90                	xchg   ax,ax
  1205e0:	b8 cd cc cc cc       	mov    eax,0xcccccccd
  1205e5:	f7 e6                	mul    esi
  1205e7:	c1 ea 03             	shr    edx,0x3
  1205ea:	8d 04 92             	lea    eax,[edx+edx*4]
  1205ed:	89 f2                	mov    edx,esi
  1205ef:	01 c0                	add    eax,eax
  1205f1:	29 c2                	sub    edx,eax
  1205f3:	89 d0                	mov    eax,edx
  1205f5:	83 c0 30             	add    eax,0x30
  1205f8:	85 ed                	test   ebp,ebp
  1205fa:	0f 84 29 0d 00 00    	je     121329 <_ZN6system4core2io3out13format_stringEPcPKcS3_+0x1c59>
  120600:	88 45 00             	mov    BYTE PTR [ebp+0x0],al
  120603:	b8 cd cc cc cc       	mov    eax,0xcccccccd
  120608:	83 c1 01             	add    ecx,0x1
  12060b:	f7 e6                	mul    esi
  12060d:	83 c5 01             	add    ebp,0x1
  120610:	89 d6                	mov    esi,edx
  120612:	c1 ee 03             	shr    esi,0x3
  120615:	85 f6                	test   esi,esi
  120617:	75 c7                	jne    1205e0 <_ZN6system4core2io3out13format_stringEPcPKcS3_+0xf10>
  120619:	89 c8                	mov    eax,ecx
  12061b:	03 44 24 0c          	add    eax,DWORD PTR [esp+0xc]
  12061f:	8b 4c 24 44          	mov    ecx,DWORD PTR [esp+0x44]
  120623:	89 c6                	mov    esi,eax
  120625:	0f 84 e0 0c 00 00    	je     12130b <_ZN6system4core2io3out13format_stringEPcPKcS3_+0x1c3b>
  12062b:	8b 44 24 0c          	mov    eax,DWORD PTR [esp+0xc]
  12062f:	c6 06 00             	mov    BYTE PTR [esi],0x0
  120632:	85 c0                	test   eax,eax
  120634:	0f 84 b3 0c 00 00    	je     1212ed <_ZN6system4core2io3out13format_stringEPcPKcS3_+0x1c1d>
  12063a:	8b 44 24 40          	mov    eax,DWORD PTR [esp+0x40]
  12063e:	8b 54 24 40          	mov    edx,DWORD PTR [esp+0x40]
  120642:	31 ed                	xor    ebp,ebp
  120644:	0f b6 40 38          	movzx  eax,BYTE PTR [eax+0x38]
  120648:	8d 72 39             	lea    esi,[edx+0x39]
  12064b:	84 c0                	test   al,al
  12064d:	75 13                	jne    120662 <_ZN6system4core2io3out13format_stringEPcPKcS3_+0xf92>
  12064f:	e9 00 f4 ff ff       	jmp    11fa54 <_ZN6system4core2io3out13format_stringEPcPKcS3_+0x384>
  120654:	8d b6 00 00 00 00    	lea    esi,[esi+0x0]
  12065a:	8d bf 00 00 00 00    	lea    edi,[edi+0x0]
  120660:	89 d5                	mov    ebp,edx
  120662:	85 f6                	test   esi,esi
  120664:	8d 55 01             	lea    edx,[ebp+0x1]
  120667:	0f 84 51 0c 00 00    	je     1212be <_ZN6system4core2io3out13format_stringEPcPKcS3_+0x1bee>
  12066d:	83 c6 01             	add    esi,0x1
  120670:	80 7e ff 00          	cmp    BYTE PTR [esi-0x1],0x0
  120674:	75 ea                	jne    120660 <_ZN6system4core2io3out13format_stringEPcPKcS3_+0xf90>
  120676:	85 ed                	test   ebp,ebp
  120678:	0f 8e d6 f3 ff ff    	jle    11fa54 <_ZN6system4core2io3out13format_stringEPcPKcS3_+0x384>
  12067e:	8b 54 24 0c          	mov    edx,DWORD PTR [esp+0xc]
  120682:	89 5c 24 48          	mov    DWORD PTR [esp+0x48],ebx
  120686:	8d 34 2a             	lea    esi,[edx+ebp*1]
  120689:	31 d2                	xor    edx,edx
  12068b:	eb 06                	jmp    120693 <_ZN6system4core2io3out13format_stringEPcPKcS3_+0xfc3>
  12068d:	8d 76 00             	lea    esi,[esi+0x0]
  120690:	0f b6 07             	movzx  eax,BYTE PTR [edi]
  120693:	85 ff                	test   edi,edi
  120695:	0f 84 f4 0b 00 00    	je     12128f <_ZN6system4core2io3out13format_stringEPcPKcS3_+0x1bbf>
  12069b:	85 f6                	test   esi,esi
  12069d:	0f 84 bd 0b 00 00    	je     121260 <_ZN6system4core2io3out13format_stringEPcPKcS3_+0x1b90>
  1206a3:	0f b6 1e             	movzx  ebx,BYTE PTR [esi]
  1206a6:	83 c2 01             	add    edx,0x1
  1206a9:	83 c7 01             	add    edi,0x1
  1206ac:	83 ee 01             	sub    esi,0x1
  1206af:	88 5f ff             	mov    BYTE PTR [edi-0x1],bl
  1206b2:	88 46 01             	mov    BYTE PTR [esi+0x1],al
  1206b5:	89 e8                	mov    eax,ebp
  1206b7:	29 d0                	sub    eax,edx
  1206b9:	39 c2                	cmp    edx,eax
  1206bb:	7c d3                	jl     120690 <_ZN6system4core2io3out13format_stringEPcPKcS3_+0xfc0>
  1206bd:	8b 5c 24 48          	mov    ebx,DWORD PTR [esp+0x48]
  1206c1:	e9 8e f3 ff ff       	jmp    11fa54 <_ZN6system4core2io3out13format_stringEPcPKcS3_+0x384>
  1206c6:	89 c8                	mov    eax,ecx
  1206c8:	bd 01 00 00 00       	mov    ebp,0x1
  1206cd:	e9 87 f2 ff ff       	jmp    11f959 <_ZN6system4core2io3out13format_stringEPcPKcS3_+0x289>
  1206d2:	85 c9                	test   ecx,ecx
  1206d4:	0f 84 6c 0b 00 00    	je     121246 <_ZN6system4core2io3out13format_stringEPcPKcS3_+0x1b76>
  1206da:	80 39 00             	cmp    BYTE PTR [ecx],0x0
  1206dd:	0f 84 7c 02 00 00    	je     12095f <_ZN6system4core2io3out13format_stringEPcPKcS3_+0x128f>
  1206e3:	8d 79 01             	lea    edi,[ecx+0x1]
  1206e6:	31 ed                	xor    ebp,ebp
  1206e8:	90                   	nop
  1206e9:	8d b4 26 00 00 00 00 	lea    esi,[esi+eiz*1+0x0]
  1206f0:	83 c5 01             	add    ebp,0x1
  1206f3:	85 ff                	test   edi,edi
  1206f5:	89 f8                	mov    eax,edi
  1206f7:	0f 84 60 0d 00 00    	je     12145d <_ZN6system4core2io3out13format_stringEPcPKcS3_+0x1d8d>
  1206fd:	83 c7 01             	add    edi,0x1
  120700:	80 7f ff 00          	cmp    BYTE PTR [edi-0x1],0x0
  120704:	75 ea                	jne    1206f0 <_ZN6system4core2io3out13format_stringEPcPKcS3_+0x1020>
  120706:	83 c5 01             	add    ebp,0x1
  120709:	85 c0                	test   eax,eax
  12070b:	0f 84 26 0d 00 00    	je     121437 <_ZN6system4core2io3out13format_stringEPcPKcS3_+0x1d67>
  120711:	01 cd                	add    ebp,ecx
  120713:	c6 00 2d             	mov    BYTE PTR [eax],0x2d
  120716:	0f 84 fd 0c 00 00    	je     121419 <_ZN6system4core2io3out13format_stringEPcPKcS3_+0x1d49>
  12071c:	c6 45 00 00          	mov    BYTE PTR [ebp+0x0],0x0
  120720:	e9 02 f3 ff ff       	jmp    11fa27 <_ZN6system4core2io3out13format_stringEPcPKcS3_+0x357>
  120725:	03 54 24 0c          	add    edx,DWORD PTR [esp+0xc]
  120729:	89 d6                	mov    esi,edx
  12072b:	0f 84 ca 0c 00 00    	je     1213fb <_ZN6system4core2io3out13format_stringEPcPKcS3_+0x1d2b>
  120731:	8b 44 24 0c          	mov    eax,DWORD PTR [esp+0xc]
  120735:	c6 06 00             	mov    BYTE PTR [esi],0x0
  120738:	85 c0                	test   eax,eax
  12073a:	0f 84 9d 0c 00 00    	je     1213dd <_ZN6system4core2io3out13format_stringEPcPKcS3_+0x1d0d>
  120740:	8b 44 24 40          	mov    eax,DWORD PTR [esp+0x40]
  120744:	8b 54 24 40          	mov    edx,DWORD PTR [esp+0x40]
  120748:	31 ed                	xor    ebp,ebp
  12074a:	0f b6 40 38          	movzx  eax,BYTE PTR [eax+0x38]
  12074e:	8d 72 39             	lea    esi,[edx+0x39]
  120751:	84 c0                	test   al,al
  120753:	75 0d                	jne    120762 <_ZN6system4core2io3out13format_stringEPcPKcS3_+0x1092>
  120755:	e9 42 f7 ff ff       	jmp    11fe9c <_ZN6system4core2io3out13format_stringEPcPKcS3_+0x7cc>
  12075a:	8d b6 00 00 00 00    	lea    esi,[esi+0x0]
  120760:	89 d5                	mov    ebp,edx
  120762:	85 f6                	test   esi,esi
  120764:	8d 55 01             	lea    edx,[ebp+0x1]
  120767:	0f 84 41 0c 00 00    	je     1213ae <_ZN6system4core2io3out13format_stringEPcPKcS3_+0x1cde>
  12076d:	83 c6 01             	add    esi,0x1
  120770:	80 7e ff 00          	cmp    BYTE PTR [esi-0x1],0x0
  120774:	75 ea                	jne    120760 <_ZN6system4core2io3out13format_stringEPcPKcS3_+0x1090>
  120776:	85 ed                	test   ebp,ebp
  120778:	0f 8e 1e f7 ff ff    	jle    11fe9c <_ZN6system4core2io3out13format_stringEPcPKcS3_+0x7cc>
  12077e:	8b 54 24 0c          	mov    edx,DWORD PTR [esp+0xc]
  120782:	89 5c 24 48          	mov    DWORD PTR [esp+0x48],ebx
  120786:	8d 34 2a             	lea    esi,[edx+ebp*1]
  120789:	31 d2                	xor    edx,edx
  12078b:	eb 06                	jmp    120793 <_ZN6system4core2io3out13format_stringEPcPKcS3_+0x10c3>
  12078d:	8d 76 00             	lea    esi,[esi+0x0]
  120790:	0f b6 07             	movzx  eax,BYTE PTR [edi]
  120793:	85 ff                	test   edi,edi
  120795:	0f 84 e4 0b 00 00    	je     12137f <_ZN6system4core2io3out13format_stringEPcPKcS3_+0x1caf>
  12079b:	85 f6                	test   esi,esi
  12079d:	0f 84 ad 0b 00 00    	je     121350 <_ZN6system4core2io3out13format_stringEPcPKcS3_+0x1c80>
  1207a3:	0f b6 1e             	movzx  ebx,BYTE PTR [esi]
  1207a6:	83 c2 01             	add    edx,0x1
  1207a9:	83 c7 01             	add    edi,0x1
  1207ac:	83 ee 01             	sub    esi,0x1
  1207af:	88 5f ff             	mov    BYTE PTR [edi-0x1],bl
  1207b2:	88 46 01             	mov    BYTE PTR [esi+0x1],al
  1207b5:	89 e8                	mov    eax,ebp
  1207b7:	29 d0                	sub    eax,edx
  1207b9:	39 c2                	cmp    edx,eax
  1207bb:	7c d3                	jl     120790 <_ZN6system4core2io3out13format_stringEPcPKcS3_+0x10c0>
  1207bd:	8b 5c 24 48          	mov    ebx,DWORD PTR [esp+0x48]
  1207c1:	e9 d6 f6 ff ff       	jmp    11fe9c <_ZN6system4core2io3out13format_stringEPcPKcS3_+0x7cc>
  1207c6:	89 cd                	mov    ebp,ecx
  1207c8:	bf 01 00 00 00       	mov    edi,0x1
  1207cd:	e9 e7 f1 ff ff       	jmp    11f9b9 <_ZN6system4core2io3out13format_stringEPcPKcS3_+0x2e9>
  1207d2:	85 c9                	test   ecx,ecx
  1207d4:	0f 84 2a 08 00 00    	je     121004 <_ZN6system4core2io3out13format_stringEPcPKcS3_+0x1934>
  1207da:	80 39 00             	cmp    BYTE PTR [ecx],0x0
  1207dd:	0f 84 8f 01 00 00    	je     120972 <_ZN6system4core2io3out13format_stringEPcPKcS3_+0x12a2>
  1207e3:	8d 71 01             	lea    esi,[ecx+0x1]
  1207e6:	31 ed                	xor    ebp,ebp
  1207e8:	90                   	nop
  1207e9:	8d b4 26 00 00 00 00 	lea    esi,[esi+eiz*1+0x0]
  1207f0:	83 c5 01             	add    ebp,0x1
  1207f3:	85 f6                	test   esi,esi
  1207f5:	89 f0                	mov    eax,esi
  1207f7:	0f 84 5d 08 00 00    	je     12105a <_ZN6system4core2io3out13format_stringEPcPKcS3_+0x198a>
  1207fd:	83 c6 01             	add    esi,0x1
  120800:	80 7e ff 00          	cmp    BYTE PTR [esi-0x1],0x0
  120804:	75 ea                	jne    1207f0 <_ZN6system4core2io3out13format_stringEPcPKcS3_+0x1120>
  120806:	83 c5 01             	add    ebp,0x1
  120809:	85 c0                	test   eax,eax
  12080b:	0f 84 1a 08 00 00    	je     12102b <_ZN6system4core2io3out13format_stringEPcPKcS3_+0x195b>
  120811:	01 cd                	add    ebp,ecx
  120813:	88 10                	mov    BYTE PTR [eax],dl
  120815:	0f 85 51 f1 ff ff    	jne    11f96c <_ZN6system4core2io3out13format_stringEPcPKcS3_+0x29c>
  12081b:	89 4c 24 0c          	mov    DWORD PTR [esp+0xc],ecx
  12081f:	50                   	push   eax
  120820:	50                   	push   eax
  120821:	6a 00                	push   0x0
  120823:	68 c4 0d 10 00       	push   0x100dc4
  120828:	e8 b3 86 01 00       	call   138ee0 <__ubsan_handle_type_mismatch>
  12082d:	83 c4 10             	add    esp,0x10
  120830:	8b 4c 24 0c          	mov    ecx,DWORD PTR [esp+0xc]
  120834:	e9 33 f1 ff ff       	jmp    11f96c <_ZN6system4core2io3out13format_stringEPcPKcS3_+0x29c>
  120839:	8d b4 26 00 00 00 00 	lea    esi,[esi+eiz*1+0x0]
  120840:	31 f6                	xor    esi,esi
  120842:	e9 bf fa ff ff       	jmp    120306 <_ZN6system4core2io3out13format_stringEPcPKcS3_+0xc36>
  120847:	31 ff                	xor    edi,edi
  120849:	e9 d8 ef ff ff       	jmp    11f826 <_ZN6system4core2io3out13format_stringEPcPKcS3_+0x156>
  12084e:	85 c9                	test   ecx,ecx
  120850:	0f 84 5b 03 00 00    	je     120bb1 <_ZN6system4core2io3out13format_stringEPcPKcS3_+0x14e1>
  120856:	80 39 00             	cmp    BYTE PTR [ecx],0x0
  120859:	0f 84 55 01 00 00    	je     1209b4 <_ZN6system4core2io3out13format_stringEPcPKcS3_+0x12e4>
  12085f:	8d 71 01             	lea    esi,[ecx+0x1]
  120862:	31 ed                	xor    ebp,ebp
  120864:	8d b6 00 00 00 00    	lea    esi,[esi+0x0]
  12086a:	8d bf 00 00 00 00    	lea    edi,[edi+0x0]
  120870:	83 c5 01             	add    ebp,0x1
  120873:	85 f6                	test   esi,esi
  120875:	89 f0                	mov    eax,esi
  120877:	0f 84 6a 13 00 00    	je     121be7 <_ZN6system4core2io3out13format_stringEPcPKcS3_+0x2517>
  12087d:	83 c6 01             	add    esi,0x1
  120880:	80 7e ff 00          	cmp    BYTE PTR [esi-0x1],0x0
  120884:	75 ea                	jne    120870 <_ZN6system4core2io3out13format_stringEPcPKcS3_+0x11a0>
  120886:	83 c5 01             	add    ebp,0x1
  120889:	85 c0                	test   eax,eax
  12088b:	0f 84 f8 05 00 00    	je     120e89 <_ZN6system4core2io3out13format_stringEPcPKcS3_+0x17b9>
  120891:	01 cd                	add    ebp,ecx
  120893:	88 10                	mov    BYTE PTR [eax],dl
  120895:	0f 85 d1 f0 ff ff    	jne    11f96c <_ZN6system4core2io3out13format_stringEPcPKcS3_+0x29c>
  12089b:	89 4c 24 0c          	mov    DWORD PTR [esp+0xc],ecx
  12089f:	50                   	push   eax
  1208a0:	50                   	push   eax
  1208a1:	6a 00                	push   0x0
  1208a3:	68 2c 0c 10 00       	push   0x100c2c
  1208a8:	e8 33 86 01 00       	call   138ee0 <__ubsan_handle_type_mismatch>
  1208ad:	83 c4 10             	add    esp,0x10
  1208b0:	8b 4c 24 0c          	mov    ecx,DWORD PTR [esp+0xc]
  1208b4:	e9 b3 f0 ff ff       	jmp    11f96c <_ZN6system4core2io3out13format_stringEPcPKcS3_+0x29c>
  1208b9:	8d b4 26 00 00 00 00 	lea    esi,[esi+eiz*1+0x0]
  1208c0:	89 cf                	mov    edi,ecx
  1208c2:	e9 7e f2 ff ff       	jmp    11fb45 <_ZN6system4core2io3out13format_stringEPcPKcS3_+0x475>
  1208c7:	85 c9                	test   ecx,ecx
  1208c9:	0f 84 e7 06 00 00    	je     120fb6 <_ZN6system4core2io3out13format_stringEPcPKcS3_+0x18e6>
  1208cf:	84 c0                	test   al,al
  1208d1:	74 ed                	je     1208c0 <_ZN6system4core2io3out13format_stringEPcPKcS3_+0x11f0>
  1208d3:	31 ed                	xor    ebp,ebp
  1208d5:	e9 dc f1 ff ff       	jmp    11fab6 <_ZN6system4core2io3out13format_stringEPcPKcS3_+0x3e6>
  1208da:	31 f6                	xor    esi,esi
  1208dc:	e9 f5 f1 ff ff       	jmp    11fad6 <_ZN6system4core2io3out13format_stringEPcPKcS3_+0x406>
  1208e1:	89 cf                	mov    edi,ecx
  1208e3:	e9 2d f5 ff ff       	jmp    11fe15 <_ZN6system4core2io3out13format_stringEPcPKcS3_+0x745>
  1208e8:	85 c9                	test   ecx,ecx
  1208ea:	0f 84 d0 12 00 00    	je     121bc0 <_ZN6system4core2io3out13format_stringEPcPKcS3_+0x24f0>
  1208f0:	84 c0                	test   al,al
  1208f2:	74 ed                	je     1208e1 <_ZN6system4core2io3out13format_stringEPcPKcS3_+0x1211>
  1208f4:	31 ed                	xor    ebp,ebp
  1208f6:	e9 8b f4 ff ff       	jmp    11fd86 <_ZN6system4core2io3out13format_stringEPcPKcS3_+0x6b6>
  1208fb:	89 ca                	mov    edx,ecx
  1208fd:	bd 01 00 00 00       	mov    ebp,0x1
  120902:	e9 e2 f6 ff ff       	jmp    11ffe9 <_ZN6system4core2io3out13format_stringEPcPKcS3_+0x919>
  120907:	89 cf                	mov    edi,ecx
  120909:	e9 77 f6 ff ff       	jmp    11ff85 <_ZN6system4core2io3out13format_stringEPcPKcS3_+0x8b5>
  12090e:	31 f6                	xor    esi,esi
  120910:	e9 91 f4 ff ff       	jmp    11fda6 <_ZN6system4core2io3out13format_stringEPcPKcS3_+0x6d6>
  120915:	85 c9                	test   ecx,ecx
  120917:	0f 84 41 03 00 00    	je     120c5e <_ZN6system4core2io3out13format_stringEPcPKcS3_+0x158e>
  12091d:	84 d2                	test   dl,dl
  12091f:	74 e6                	je     120907 <_ZN6system4core2io3out13format_stringEPcPKcS3_+0x1237>
  120921:	31 c0                	xor    eax,eax
  120923:	e9 d0 f5 ff ff       	jmp    11fef8 <_ZN6system4core2io3out13format_stringEPcPKcS3_+0x828>
  120928:	85 c9                	test   ecx,ecx
  12092a:	0f 84 93 11 00 00    	je     121ac3 <_ZN6system4core2io3out13format_stringEPcPKcS3_+0x23f3>
  120930:	80 7c 24 10 00       	cmp    BYTE PTR [esp+0x10],0x0
  120935:	74 0e                	je     120945 <_ZN6system4core2io3out13format_stringEPcPKcS3_+0x1275>
  120937:	31 d2                	xor    edx,edx
  120939:	e9 fb f2 ff ff       	jmp    11fc39 <_ZN6system4core2io3out13format_stringEPcPKcS3_+0x569>
  12093e:	31 f6                	xor    esi,esi
  120940:	e9 d1 f5 ff ff       	jmp    11ff16 <_ZN6system4core2io3out13format_stringEPcPKcS3_+0x846>
  120945:	89 cf                	mov    edi,ecx
  120947:	e9 69 f3 ff ff       	jmp    11fcb5 <_ZN6system4core2io3out13format_stringEPcPKcS3_+0x5e5>
  12094c:	89 c8                	mov    eax,ecx
  12094e:	bd 01 00 00 00       	mov    ebp,0x1
  120953:	e9 e1 f6 ff ff       	jmp    120039 <_ZN6system4core2io3out13format_stringEPcPKcS3_+0x969>
  120958:	31 ff                	xor    edi,edi
  12095a:	e9 f7 f2 ff ff       	jmp    11fc56 <_ZN6system4core2io3out13format_stringEPcPKcS3_+0x586>
  12095f:	89 c8                	mov    eax,ecx
  120961:	bd 01 00 00 00       	mov    ebp,0x1
  120966:	e9 9e fd ff ff       	jmp    120709 <_ZN6system4core2io3out13format_stringEPcPKcS3_+0x1039>
  12096b:	89 cf                	mov    edi,ecx
  12096d:	e9 03 fa ff ff       	jmp    120375 <_ZN6system4core2io3out13format_stringEPcPKcS3_+0xca5>
  120972:	89 c8                	mov    eax,ecx
  120974:	bd 01 00 00 00       	mov    ebp,0x1
  120979:	e9 8b fe ff ff       	jmp    120809 <_ZN6system4core2io3out13format_stringEPcPKcS3_+0x1139>
  12097e:	85 c9                	test   ecx,ecx
  120980:	0f 84 16 0d 00 00    	je     12169c <_ZN6system4core2io3out13format_stringEPcPKcS3_+0x1fcc>
  120986:	84 c0                	test   al,al
  120988:	74 07                	je     120991 <_ZN6system4core2io3out13format_stringEPcPKcS3_+0x12c1>
  12098a:	31 d2                	xor    edx,edx
  12098c:	e9 75 ee ff ff       	jmp    11f806 <_ZN6system4core2io3out13format_stringEPcPKcS3_+0x136>
  120991:	89 cf                	mov    edi,ecx
  120993:	e9 ed ee ff ff       	jmp    11f885 <_ZN6system4core2io3out13format_stringEPcPKcS3_+0x1b5>
  120998:	85 c9                	test   ecx,ecx
  12099a:	0f 84 12 0f 00 00    	je     1218b2 <_ZN6system4core2io3out13format_stringEPcPKcS3_+0x21e2>
  1209a0:	89 f8                	mov    eax,edi
  1209a2:	84 c0                	test   al,al
  1209a4:	74 c5                	je     12096b <_ZN6system4core2io3out13format_stringEPcPKcS3_+0x129b>
  1209a6:	31 c0                	xor    eax,eax
  1209a8:	e9 3b f9 ff ff       	jmp    1202e8 <_ZN6system4core2io3out13format_stringEPcPKcS3_+0xc18>
  1209ad:	89 cf                	mov    edi,ecx
  1209af:	e9 f1 fb ff ff       	jmp    1205a5 <_ZN6system4core2io3out13format_stringEPcPKcS3_+0xed5>
  1209b4:	89 c8                	mov    eax,ecx
  1209b6:	bd 01 00 00 00       	mov    ebp,0x1
  1209bb:	e9 c9 fe ff ff       	jmp    120889 <_ZN6system4core2io3out13format_stringEPcPKcS3_+0x11b9>
  1209c0:	85 c9                	test   ecx,ecx
  1209c2:	0f 84 2d 13 00 00    	je     121cf5 <_ZN6system4core2io3out13format_stringEPcPKcS3_+0x2625>
  1209c8:	80 7c 24 14 00       	cmp    BYTE PTR [esp+0x14],0x0
  1209cd:	74 de                	je     1209ad <_ZN6system4core2io3out13format_stringEPcPKcS3_+0x12dd>
  1209cf:	31 d2                	xor    edx,edx
  1209d1:	e9 53 fb ff ff       	jmp    120529 <_ZN6system4core2io3out13format_stringEPcPKcS3_+0xe59>
  1209d6:	31 ff                	xor    edi,edi
  1209d8:	e9 69 fb ff ff       	jmp    120546 <_ZN6system4core2io3out13format_stringEPcPKcS3_+0xe76>
  1209dd:	88 44 24 0c          	mov    BYTE PTR [esp+0xc],al
  1209e1:	89 4c 24 14          	mov    DWORD PTR [esp+0x14],ecx
  1209e5:	50                   	push   eax
  1209e6:	50                   	push   eax
  1209e7:	6a 00                	push   0x0
  1209e9:	68 b4 11 10 00       	push   0x1011b4
  1209ee:	e8 ed 84 01 00       	call   138ee0 <__ubsan_handle_type_mismatch>
  1209f3:	83 c4 10             	add    esp,0x10
  1209f6:	8b 4c 24 14          	mov    ecx,DWORD PTR [esp+0x14]
  1209fa:	0f b6 44 24 0c       	movzx  eax,BYTE PTR [esp+0xc]
  1209ff:	e9 e6 f3 ff ff       	jmp    11fdea <_ZN6system4core2io3out13format_stringEPcPKcS3_+0x71a>
  120a04:	88 44 24 0c          	mov    BYTE PTR [esp+0xc],al
  120a08:	89 4c 24 14          	mov    DWORD PTR [esp+0x14],ecx
  120a0c:	50                   	push   eax
  120a0d:	50                   	push   eax
  120a0e:	6a 00                	push   0x0
  120a10:	68 84 11 10 00       	push   0x101184
  120a15:	e8 c6 84 01 00       	call   138ee0 <__ubsan_handle_type_mismatch>
  120a1a:	83 c4 10             	add    esp,0x10
  120a1d:	8b 4c 24 14          	mov    ecx,DWORD PTR [esp+0x14]
  120a21:	0f b6 44 24 0c       	movzx  eax,BYTE PTR [esp+0xc]
  120a26:	e9 a8 f3 ff ff       	jmp    11fdd3 <_ZN6system4core2io3out13format_stringEPcPKcS3_+0x703>
  120a2b:	89 4c 24 0c          	mov    DWORD PTR [esp+0xc],ecx
  120a2f:	50                   	push   eax
  120a30:	50                   	push   eax
  120a31:	6a 00                	push   0x0
  120a33:	68 9c 11 10 00       	push   0x10119c
  120a38:	e8 a3 84 01 00       	call   138ee0 <__ubsan_handle_type_mismatch>
  120a3d:	83 c4 10             	add    esp,0x10
  120a40:	8b 4c 24 0c          	mov    ecx,DWORD PTR [esp+0xc]
  120a44:	e9 7f f3 ff ff       	jmp    11fdc8 <_ZN6system4core2io3out13format_stringEPcPKcS3_+0x6f8>
  120a49:	89 44 24 14          	mov    DWORD PTR [esp+0x14],eax
  120a4d:	89 4c 24 18          	mov    DWORD PTR [esp+0x18],ecx
  120a51:	50                   	push   eax
  120a52:	50                   	push   eax
  120a53:	6a 00                	push   0x0
  120a55:	68 cc 11 10 00       	push   0x1011cc
  120a5a:	e8 81 84 01 00       	call   138ee0 <__ubsan_handle_type_mismatch>
  120a5f:	83 c4 10             	add    esp,0x10
  120a62:	8b 4c 24 18          	mov    ecx,DWORD PTR [esp+0x18]
  120a66:	8b 44 24 14          	mov    eax,DWORD PTR [esp+0x14]
  120a6a:	e9 2e f3 ff ff       	jmp    11fd9d <_ZN6system4core2io3out13format_stringEPcPKcS3_+0x6cd>
  120a6f:	88 44 24 10          	mov    BYTE PTR [esp+0x10],al
  120a73:	89 4c 24 18          	mov    DWORD PTR [esp+0x18],ecx
  120a77:	89 54 24 14          	mov    DWORD PTR [esp+0x14],edx
  120a7b:	50                   	push   eax
  120a7c:	50                   	push   eax
  120a7d:	6a 00                	push   0x0
  120a7f:	68 7c 0a 10 00       	push   0x100a7c
  120a84:	e8 57 84 01 00       	call   138ee0 <__ubsan_handle_type_mismatch>
  120a89:	83 c4 10             	add    esp,0x10
  120a8c:	8b 4c 24 18          	mov    ecx,DWORD PTR [esp+0x18]
  120a90:	8b 54 24 14          	mov    edx,DWORD PTR [esp+0x14]
  120a94:	0f b6 44 24 10       	movzx  eax,BYTE PTR [esp+0x10]
  120a99:	e9 60 ed ff ff       	jmp    11f7fe <_ZN6system4core2io3out13format_stringEPcPKcS3_+0x12e>
  120a9e:	89 4c 24 1c          	mov    DWORD PTR [esp+0x1c],ecx
  120aa2:	89 54 24 18          	mov    DWORD PTR [esp+0x18],edx
  120aa6:	88 44 24 14          	mov    BYTE PTR [esp+0x14],al
  120aaa:	51                   	push   ecx
  120aab:	51                   	push   ecx
  120aac:	6a 00                	push   0x0
  120aae:	68 3c 11 10 00       	push   0x10113c
  120ab3:	e9 fd f6 ff ff       	jmp    1201b5 <_ZN6system4core2io3out13format_stringEPcPKcS3_+0xae5>
  120ab8:	88 44 24 18          	mov    BYTE PTR [esp+0x18],al
  120abc:	89 4c 24 1c          	mov    DWORD PTR [esp+0x1c],ecx
  120ac0:	89 54 24 14          	mov    DWORD PTR [esp+0x14],edx
  120ac4:	50                   	push   eax
  120ac5:	50                   	push   eax
  120ac6:	6a 00                	push   0x0
  120ac8:	68 5c 12 10 00       	push   0x10125c
  120acd:	e8 0e 84 01 00       	call   138ee0 <__ubsan_handle_type_mismatch>
  120ad2:	83 c4 10             	add    esp,0x10
  120ad5:	8b 4c 24 1c          	mov    ecx,DWORD PTR [esp+0x1c]
  120ad9:	0f b6 44 24 18       	movzx  eax,BYTE PTR [esp+0x18]
  120ade:	8b 54 24 14          	mov    edx,DWORD PTR [esp+0x14]
  120ae2:	e9 5c f6 ff ff       	jmp    120143 <_ZN6system4core2io3out13format_stringEPcPKcS3_+0xa73>
  120ae7:	88 44 24 18          	mov    BYTE PTR [esp+0x18],al
  120aeb:	89 4c 24 1c          	mov    DWORD PTR [esp+0x1c],ecx
  120aef:	89 54 24 14          	mov    DWORD PTR [esp+0x14],edx
  120af3:	50                   	push   eax
  120af4:	50                   	push   eax
  120af5:	6a 00                	push   0x0
  120af7:	68 74 12 10 00       	push   0x101274
  120afc:	e8 df 83 01 00       	call   138ee0 <__ubsan_handle_type_mismatch>
  120b01:	83 c4 10             	add    esp,0x10
  120b04:	8b 4c 24 1c          	mov    ecx,DWORD PTR [esp+0x1c]
  120b08:	0f b6 44 24 18       	movzx  eax,BYTE PTR [esp+0x18]
  120b0d:	8b 54 24 14          	mov    edx,DWORD PTR [esp+0x14]
  120b11:	e9 25 f6 ff ff       	jmp    12013b <_ZN6system4core2io3out13format_stringEPcPKcS3_+0xa6b>
  120b16:	89 44 24 10          	mov    DWORD PTR [esp+0x10],eax
  120b1a:	89 4c 24 14          	mov    DWORD PTR [esp+0x14],ecx
  120b1e:	88 54 24 0c          	mov    BYTE PTR [esp+0xc],dl
  120b22:	50                   	push   eax
  120b23:	50                   	push   eax
  120b24:	6a 00                	push   0x0
  120b26:	68 44 0f 10 00       	push   0x100f44
  120b2b:	e8 b0 83 01 00       	call   138ee0 <__ubsan_handle_type_mismatch>
  120b30:	83 c4 10             	add    esp,0x10
  120b33:	8b 4c 24 14          	mov    ecx,DWORD PTR [esp+0x14]
  120b37:	8b 44 24 10          	mov    eax,DWORD PTR [esp+0x10]
  120b3b:	0f b6 54 24 0c       	movzx  edx,BYTE PTR [esp+0xc]
  120b40:	e9 fc f4 ff ff       	jmp    120041 <_ZN6system4core2io3out13format_stringEPcPKcS3_+0x971>
  120b45:	89 4c 24 10          	mov    DWORD PTR [esp+0x10],ecx
  120b49:	56                   	push   esi
  120b4a:	56                   	push   esi
  120b4b:	6a 00                	push   0x0
  120b4d:	68 3c 0e 10 00       	push   0x100e3c
  120b52:	e8 89 83 01 00       	call   138ee0 <__ubsan_handle_type_mismatch>
  120b57:	83 c4 10             	add    esp,0x10
  120b5a:	8b 4c 24 10          	mov    ecx,DWORD PTR [esp+0x10]
  120b5e:	e9 5a f1 ff ff       	jmp    11fcbd <_ZN6system4core2io3out13format_stringEPcPKcS3_+0x5ed>
  120b63:	88 44 24 10          	mov    BYTE PTR [esp+0x10],al
  120b67:	89 4c 24 14          	mov    DWORD PTR [esp+0x14],ecx
  120b6b:	50                   	push   eax
  120b6c:	50                   	push   eax
  120b6d:	6a 00                	push   0x0
  120b6f:	68 9c 0e 10 00       	push   0x100e9c
  120b74:	e8 67 83 01 00       	call   138ee0 <__ubsan_handle_type_mismatch>
  120b79:	83 c4 10             	add    esp,0x10
  120b7c:	8b 4c 24 14          	mov    ecx,DWORD PTR [esp+0x14]
  120b80:	0f b6 44 24 10       	movzx  eax,BYTE PTR [esp+0x10]
  120b85:	e9 00 f1 ff ff       	jmp    11fc8a <_ZN6system4core2io3out13format_stringEPcPKcS3_+0x5ba>
  120b8a:	88 44 24 10          	mov    BYTE PTR [esp+0x10],al
  120b8e:	89 4c 24 14          	mov    DWORD PTR [esp+0x14],ecx
  120b92:	50                   	push   eax
  120b93:	50                   	push   eax
  120b94:	6a 00                	push   0x0
  120b96:	68 6c 0e 10 00       	push   0x100e6c
  120b9b:	e8 40 83 01 00       	call   138ee0 <__ubsan_handle_type_mismatch>
  120ba0:	83 c4 10             	add    esp,0x10
  120ba3:	8b 4c 24 14          	mov    ecx,DWORD PTR [esp+0x14]
  120ba7:	0f b6 44 24 10       	movzx  eax,BYTE PTR [esp+0x10]
  120bac:	e9 c2 f0 ff ff       	jmp    11fc73 <_ZN6system4core2io3out13format_stringEPcPKcS3_+0x5a3>
  120bb1:	88 54 24 0c          	mov    BYTE PTR [esp+0xc],dl
  120bb5:	89 4c 24 10          	mov    DWORD PTR [esp+0x10],ecx
  120bb9:	52                   	push   edx
  120bba:	52                   	push   edx
  120bbb:	6a 00                	push   0x0
  120bbd:	68 74 0c 10 00       	push   0x100c74
  120bc2:	e8 19 83 01 00       	call   138ee0 <__ubsan_handle_type_mismatch>
  120bc7:	83 c4 10             	add    esp,0x10
  120bca:	8b 4c 24 10          	mov    ecx,DWORD PTR [esp+0x10]
  120bce:	0f b6 54 24 0c       	movzx  edx,BYTE PTR [esp+0xc]
  120bd3:	e9 7e fc ff ff       	jmp    120856 <_ZN6system4core2io3out13format_stringEPcPKcS3_+0x1186>
  120bd8:	89 4c 24 0c          	mov    DWORD PTR [esp+0xc],ecx
  120bdc:	51                   	push   ecx
  120bdd:	51                   	push   ecx
  120bde:	6a 00                	push   0x0
  120be0:	68 8c 0c 10 00       	push   0x100c8c
  120be5:	e8 f6 82 01 00       	call   138ee0 <__ubsan_handle_type_mismatch>
  120bea:	83 c4 10             	add    esp,0x10
  120bed:	8b 4c 24 0c          	mov    ecx,DWORD PTR [esp+0xc]
  120bf1:	e9 b3 f7 ff ff       	jmp    1203a9 <_ZN6system4core2io3out13format_stringEPcPKcS3_+0xcd9>
  120bf6:	55                   	push   ebp
  120bf7:	55                   	push   ebp
  120bf8:	6a 00                	push   0x0
  120bfa:	68 14 0f 10 00       	push   0x100f14
  120bff:	e8 dc 82 01 00       	call   138ee0 <__ubsan_handle_type_mismatch>
  120c04:	83 c4 10             	add    esp,0x10
  120c07:	8b 4c 24 10          	mov    ecx,DWORD PTR [esp+0x10]
  120c0b:	e9 9d ef ff ff       	jmp    11fbad <_ZN6system4core2io3out13format_stringEPcPKcS3_+0x4dd>
  120c10:	89 4c 24 0c          	mov    DWORD PTR [esp+0xc],ecx
  120c14:	50                   	push   eax
  120c15:	50                   	push   eax
  120c16:	6a 00                	push   0x0
  120c18:	68 14 09 10 00       	push   0x100914
  120c1d:	e8 be 82 01 00       	call   138ee0 <__ubsan_handle_type_mismatch>
  120c22:	83 c4 10             	add    esp,0x10
  120c25:	8b 4c 24 0c          	mov    ecx,DWORD PTR [esp+0xc]
  120c29:	e9 dd ec ff ff       	jmp    11f90b <_ZN6system4core2io3out13format_stringEPcPKcS3_+0x23b>
  120c2e:	89 4c 24 18          	mov    DWORD PTR [esp+0x18],ecx
  120c32:	88 54 24 14          	mov    BYTE PTR [esp+0x14],dl
  120c36:	88 44 24 10          	mov    BYTE PTR [esp+0x10],al
  120c3a:	51                   	push   ecx
  120c3b:	51                   	push   ecx
  120c3c:	6a 00                	push   0x0
  120c3e:	68 fc 0e 10 00       	push   0x100efc
  120c43:	e8 98 82 01 00       	call   138ee0 <__ubsan_handle_type_mismatch>
  120c48:	83 c4 10             	add    esp,0x10
  120c4b:	8b 4c 24 18          	mov    ecx,DWORD PTR [esp+0x18]
  120c4f:	0f b6 54 24 14       	movzx  edx,BYTE PTR [esp+0x14]
  120c54:	0f b6 44 24 10       	movzx  eax,BYTE PTR [esp+0x10]
  120c59:	e9 7c ef ff ff       	jmp    11fbda <_ZN6system4core2io3out13format_stringEPcPKcS3_+0x50a>
  120c5e:	89 4c 24 18          	mov    DWORD PTR [esp+0x18],ecx
  120c62:	88 54 24 14          	mov    BYTE PTR [esp+0x14],dl
  120c66:	55                   	push   ebp
  120c67:	55                   	push   ebp
  120c68:	6a 00                	push   0x0
  120c6a:	68 cc 08 10 00       	push   0x1008cc
  120c6f:	e8 6c 82 01 00       	call   138ee0 <__ubsan_handle_type_mismatch>
  120c74:	83 c4 10             	add    esp,0x10
  120c77:	8b 4c 24 18          	mov    ecx,DWORD PTR [esp+0x18]
  120c7b:	0f b6 54 24 14       	movzx  edx,BYTE PTR [esp+0x14]
  120c80:	e9 98 fc ff ff       	jmp    12091d <_ZN6system4core2io3out13format_stringEPcPKcS3_+0x124d>
  120c85:	89 4c 24 0c          	mov    DWORD PTR [esp+0xc],ecx
  120c89:	50                   	push   eax
  120c8a:	50                   	push   eax
  120c8b:	6a 00                	push   0x0
  120c8d:	68 98 15 10 00       	push   0x101598
  120c92:	e8 49 82 01 00       	call   138ee0 <__ubsan_handle_type_mismatch>
  120c97:	83 c4 10             	add    esp,0x10
  120c9a:	8b 4c 24 0c          	mov    ecx,DWORD PTR [esp+0xc]
  120c9e:	e9 85 ec ff ff       	jmp    11f928 <_ZN6system4core2io3out13format_stringEPcPKcS3_+0x258>
  120ca3:	89 74 24 10          	mov    DWORD PTR [esp+0x10],esi
  120ca7:	89 4c 24 0c          	mov    DWORD PTR [esp+0xc],ecx
  120cab:	50                   	push   eax
  120cac:	50                   	push   eax
  120cad:	6a 00                	push   0x0
  120caf:	68 80 15 10 00       	push   0x101580
  120cb4:	e8 27 82 01 00       	call   138ee0 <__ubsan_handle_type_mismatch>
  120cb9:	83 c4 10             	add    esp,0x10
  120cbc:	8b 44 24 10          	mov    eax,DWORD PTR [esp+0x10]
  120cc0:	8b 4c 24 0c          	mov    ecx,DWORD PTR [esp+0xc]
  120cc4:	e9 84 ec ff ff       	jmp    11f94d <_ZN6system4core2io3out13format_stringEPcPKcS3_+0x27d>
  120cc9:	89 4c 24 14          	mov    DWORD PTR [esp+0x14],ecx
  120ccd:	55                   	push   ebp
  120cce:	55                   	push   ebp
  120ccf:	6a 00                	push   0x0
  120cd1:	68 dc 13 10 00       	push   0x1013dc
  120cd6:	e8 05 82 01 00       	call   138ee0 <__ubsan_handle_type_mismatch>
  120cdb:	83 c4 10             	add    esp,0x10
  120cde:	8b 4c 24 14          	mov    ecx,DWORD PTR [esp+0x14]
  120ce2:	e9 54 ed ff ff       	jmp    11fa3b <_ZN6system4core2io3out13format_stringEPcPKcS3_+0x36b>
  120ce7:	89 4c 24 10          	mov    DWORD PTR [esp+0x10],ecx
  120ceb:	89 44 24 0c          	mov    DWORD PTR [esp+0xc],eax
  120cef:	56                   	push   esi
  120cf0:	56                   	push   esi
  120cf1:	6a 00                	push   0x0
  120cf3:	68 5c 15 10 00       	push   0x10155c
  120cf8:	e8 e3 81 01 00       	call   138ee0 <__ubsan_handle_type_mismatch>
  120cfd:	83 c4 10             	add    esp,0x10
  120d00:	8b 4c 24 10          	mov    ecx,DWORD PTR [esp+0x10]
  120d04:	8b 44 24 0c          	mov    eax,DWORD PTR [esp+0xc]
  120d08:	e9 54 ec ff ff       	jmp    11f961 <_ZN6system4core2io3out13format_stringEPcPKcS3_+0x291>
  120d0d:	89 4c 24 0c          	mov    DWORD PTR [esp+0xc],ecx
  120d11:	51                   	push   ecx
  120d12:	51                   	push   ecx
  120d13:	6a 00                	push   0x0
  120d15:	68 44 15 10 00       	push   0x101544
  120d1a:	e8 c1 81 01 00       	call   138ee0 <__ubsan_handle_type_mismatch>
  120d1f:	83 c4 10             	add    esp,0x10
  120d22:	8b 4c 24 0c          	mov    ecx,DWORD PTR [esp+0xc]
  120d26:	e9 41 ec ff ff       	jmp    11f96c <_ZN6system4core2io3out13format_stringEPcPKcS3_+0x29c>
  120d2b:	89 44 24 0c          	mov    DWORD PTR [esp+0xc],eax
  120d2f:	89 54 24 14          	mov    DWORD PTR [esp+0x14],edx
  120d33:	89 4c 24 10          	mov    DWORD PTR [esp+0x10],ecx
  120d37:	50                   	push   eax
  120d38:	50                   	push   eax
  120d39:	6a 00                	push   0x0
  120d3b:	68 14 15 10 00       	push   0x101514
  120d40:	e8 9b 81 01 00       	call   138ee0 <__ubsan_handle_type_mismatch>
  120d45:	83 c4 10             	add    esp,0x10
  120d48:	8b 54 24 14          	mov    edx,DWORD PTR [esp+0x14]
  120d4c:	8b 4c 24 10          	mov    ecx,DWORD PTR [esp+0x10]
  120d50:	8b 44 24 0c          	mov    eax,DWORD PTR [esp+0xc]
  120d54:	e9 54 ec ff ff       	jmp    11f9ad <_ZN6system4core2io3out13format_stringEPcPKcS3_+0x2dd>
  120d59:	89 44 24 0c          	mov    DWORD PTR [esp+0xc],eax
  120d5d:	89 4c 24 14          	mov    DWORD PTR [esp+0x14],ecx
  120d61:	89 54 24 10          	mov    DWORD PTR [esp+0x10],edx
  120d65:	50                   	push   eax
  120d66:	50                   	push   eax
  120d67:	6a 00                	push   0x0
  120d69:	68 fc 14 10 00       	push   0x1014fc
  120d6e:	e8 6d 81 01 00       	call   138ee0 <__ubsan_handle_type_mismatch>
  120d73:	83 c4 10             	add    esp,0x10
  120d76:	8b 4c 24 14          	mov    ecx,DWORD PTR [esp+0x14]
  120d7a:	8b 54 24 10          	mov    edx,DWORD PTR [esp+0x10]
  120d7e:	8b 44 24 0c          	mov    eax,DWORD PTR [esp+0xc]
  120d82:	e9 3a ec ff ff       	jmp    11f9c1 <_ZN6system4core2io3out13format_stringEPcPKcS3_+0x2f1>
  120d87:	89 44 24 0c          	mov    DWORD PTR [esp+0xc],eax
  120d8b:	50                   	push   eax
  120d8c:	50                   	push   eax
  120d8d:	6a 00                	push   0x0
  120d8f:	68 e0 15 10 00       	push   0x1015e0
  120d94:	e8 47 81 01 00       	call   138ee0 <__ubsan_handle_type_mismatch>
  120d99:	83 c4 10             	add    esp,0x10
  120d9c:	8b 44 24 0c          	mov    eax,DWORD PTR [esp+0xc]
  120da0:	e9 76 e9 ff ff       	jmp    11f71b <_ZN6system4core2io3out13format_stringEPcPKcS3_+0x4b>
  120da5:	89 4c 24 18          	mov    DWORD PTR [esp+0x18],ecx
  120da9:	88 44 24 14          	mov    BYTE PTR [esp+0x14],al
  120dad:	52                   	push   edx
  120dae:	52                   	push   edx
  120daf:	6a 00                	push   0x0
  120db1:	68 fc 11 10 00       	push   0x1011fc
  120db6:	e8 25 81 01 00       	call   138ee0 <__ubsan_handle_type_mismatch>
  120dbb:	83 c4 10             	add    esp,0x10
  120dbe:	8b 4c 24 18          	mov    ecx,DWORD PTR [esp+0x18]
  120dc2:	0f b6 44 24 14       	movzx  eax,BYTE PTR [esp+0x14]
  120dc7:	e9 b2 ef ff ff       	jmp    11fd7e <_ZN6system4core2io3out13format_stringEPcPKcS3_+0x6ae>
  120dcc:	89 7c 24 18          	mov    DWORD PTR [esp+0x18],edi
  120dd0:	89 4c 24 14          	mov    DWORD PTR [esp+0x14],ecx
  120dd4:	50                   	push   eax
  120dd5:	50                   	push   eax
  120dd6:	6a 00                	push   0x0
  120dd8:	68 34 10 10 00       	push   0x101034
  120ddd:	e8 fe 80 01 00       	call   138ee0 <__ubsan_handle_type_mismatch>
  120de2:	83 c4 10             	add    esp,0x10
  120de5:	8b 44 24 18          	mov    eax,DWORD PTR [esp+0x18]
  120de9:	8b 4c 24 14          	mov    ecx,DWORD PTR [esp+0x14]
  120ded:	e9 eb f0 ff ff       	jmp    11fedd <_ZN6system4core2io3out13format_stringEPcPKcS3_+0x80d>
  120df2:	89 4c 24 14          	mov    DWORD PTR [esp+0x14],ecx
  120df6:	52                   	push   edx
  120df7:	52                   	push   edx
  120df8:	6a 00                	push   0x0
  120dfa:	68 7c 10 10 00       	push   0x10107c
  120dff:	e8 dc 80 01 00       	call   138ee0 <__ubsan_handle_type_mismatch>
  120e04:	83 c4 10             	add    esp,0x10
  120e07:	8b 4c 24 14          	mov    ecx,DWORD PTR [esp+0x14]
  120e0b:	e9 84 f0 ff ff       	jmp    11fe94 <_ZN6system4core2io3out13format_stringEPcPKcS3_+0x7c4>
  120e10:	89 4c 24 14          	mov    DWORD PTR [esp+0x14],ecx
  120e14:	51                   	push   ecx
  120e15:	51                   	push   ecx
  120e16:	6a 00                	push   0x0
  120e18:	68 94 10 10 00       	push   0x101094
  120e1d:	e8 be 80 01 00       	call   138ee0 <__ubsan_handle_type_mismatch>
  120e22:	83 c4 10             	add    esp,0x10
  120e25:	8b 4c 24 14          	mov    ecx,DWORD PTR [esp+0x14]
  120e29:	e9 55 f0 ff ff       	jmp    11fe83 <_ZN6system4core2io3out13format_stringEPcPKcS3_+0x7b3>
  120e2e:	89 4c 24 0c          	mov    DWORD PTR [esp+0xc],ecx
  120e32:	56                   	push   esi
  120e33:	56                   	push   esi
  120e34:	6a 00                	push   0x0
  120e36:	68 ec 12 10 00       	push   0x1012ec
  120e3b:	e8 a0 80 01 00       	call   138ee0 <__ubsan_handle_type_mismatch>
  120e40:	83 c4 10             	add    esp,0x10
  120e43:	8b 4c 24 0c          	mov    ecx,DWORD PTR [esp+0xc]
  120e47:	e9 01 ed ff ff       	jmp    11fb4d <_ZN6system4core2io3out13format_stringEPcPKcS3_+0x47d>
  120e4c:	50                   	push   eax
  120e4d:	50                   	push   eax
  120e4e:	6a 00                	push   0x0
  120e50:	68 04 13 10 00       	push   0x101304
  120e55:	e8 86 80 01 00       	call   138ee0 <__ubsan_handle_type_mismatch>
  120e5a:	83 c4 10             	add    esp,0x10
  120e5d:	e9 d8 ec ff ff       	jmp    11fb3a <_ZN6system4core2io3out13format_stringEPcPKcS3_+0x46a>
  120e62:	88 44 24 0c          	mov    BYTE PTR [esp+0xc],al
  120e66:	89 4c 24 14          	mov    DWORD PTR [esp+0x14],ecx
  120e6a:	50                   	push   eax
  120e6b:	50                   	push   eax
  120e6c:	6a 00                	push   0x0
  120e6e:	68 4c 13 10 00       	push   0x10134c
  120e73:	e8 68 80 01 00       	call   138ee0 <__ubsan_handle_type_mismatch>
  120e78:	83 c4 10             	add    esp,0x10
  120e7b:	8b 4c 24 14          	mov    ecx,DWORD PTR [esp+0x14]
  120e7f:	0f b6 44 24 0c       	movzx  eax,BYTE PTR [esp+0xc]
  120e84:	e9 91 ec ff ff       	jmp    11fb1a <_ZN6system4core2io3out13format_stringEPcPKcS3_+0x44a>
  120e89:	89 44 24 10          	mov    DWORD PTR [esp+0x10],eax
  120e8d:	89 4c 24 14          	mov    DWORD PTR [esp+0x14],ecx
  120e91:	88 54 24 0c          	mov    BYTE PTR [esp+0xc],dl
  120e95:	50                   	push   eax
  120e96:	50                   	push   eax
  120e97:	6a 00                	push   0x0
  120e99:	68 44 0c 10 00       	push   0x100c44
  120e9e:	e8 3d 80 01 00       	call   138ee0 <__ubsan_handle_type_mismatch>
  120ea3:	83 c4 10             	add    esp,0x10
  120ea6:	8b 4c 24 14          	mov    ecx,DWORD PTR [esp+0x14]
  120eaa:	8b 44 24 10          	mov    eax,DWORD PTR [esp+0x10]
  120eae:	0f b6 54 24 0c       	movzx  edx,BYTE PTR [esp+0xc]
  120eb3:	e9 d9 f9 ff ff       	jmp    120891 <_ZN6system4core2io3out13format_stringEPcPKcS3_+0x11c1>
  120eb8:	89 4c 24 14          	mov    DWORD PTR [esp+0x14],ecx
  120ebc:	55                   	push   ebp
  120ebd:	55                   	push   ebp
  120ebe:	6a 00                	push   0x0
  120ec0:	68 44 12 10 00       	push   0x101244
  120ec5:	e8 16 80 01 00       	call   138ee0 <__ubsan_handle_type_mismatch>
  120eca:	83 c4 10             	add    esp,0x10
  120ecd:	8b 4c 24 14          	mov    ecx,DWORD PTR [esp+0x14]
  120ed1:	e9 3d ee ff ff       	jmp    11fd13 <_ZN6system4core2io3out13format_stringEPcPKcS3_+0x643>
  120ed6:	88 44 24 14          	mov    BYTE PTR [esp+0x14],al
  120eda:	89 4c 24 18          	mov    DWORD PTR [esp+0x18],ecx
  120ede:	50                   	push   eax
  120edf:	50                   	push   eax
  120ee0:	6a 00                	push   0x0
  120ee2:	68 7c 13 10 00       	push   0x10137c
  120ee7:	e8 f4 7f 01 00       	call   138ee0 <__ubsan_handle_type_mismatch>
  120eec:	83 c4 10             	add    esp,0x10
  120eef:	8b 4c 24 18          	mov    ecx,DWORD PTR [esp+0x18]
  120ef3:	0f b6 44 24 14       	movzx  eax,BYTE PTR [esp+0x14]
  120ef8:	e9 a0 eb ff ff       	jmp    11fa9d <_ZN6system4core2io3out13format_stringEPcPKcS3_+0x3cd>
  120efd:	89 4c 24 18          	mov    DWORD PTR [esp+0x18],ecx
  120f01:	88 44 24 14          	mov    BYTE PTR [esp+0x14],al
  120f05:	52                   	push   edx
  120f06:	52                   	push   edx
  120f07:	6a 00                	push   0x0
  120f09:	68 94 13 10 00       	push   0x101394
  120f0e:	e8 cd 7f 01 00       	call   138ee0 <__ubsan_handle_type_mismatch>
  120f13:	83 c4 10             	add    esp,0x10
  120f16:	8b 4c 24 18          	mov    ecx,DWORD PTR [esp+0x18]
  120f1a:	0f b6 44 24 14       	movzx  eax,BYTE PTR [esp+0x14]
  120f1f:	e9 8a eb ff ff       	jmp    11faae <_ZN6system4core2io3out13format_stringEPcPKcS3_+0x3de>
  120f24:	88 44 24 14          	mov    BYTE PTR [esp+0x14],al
  120f28:	89 4c 24 18          	mov    DWORD PTR [esp+0x18],ecx
  120f2c:	50                   	push   eax
  120f2d:	50                   	push   eax
  120f2e:	6a 00                	push   0x0
  120f30:	68 e4 11 10 00       	push   0x1011e4
  120f35:	e8 a6 7f 01 00       	call   138ee0 <__ubsan_handle_type_mismatch>
  120f3a:	83 c4 10             	add    esp,0x10
  120f3d:	8b 4c 24 18          	mov    ecx,DWORD PTR [esp+0x18]
  120f41:	0f b6 44 24 14       	movzx  eax,BYTE PTR [esp+0x14]
  120f46:	e9 22 ee ff ff       	jmp    11fd6d <_ZN6system4core2io3out13format_stringEPcPKcS3_+0x69d>
  120f4b:	88 44 24 0c          	mov    BYTE PTR [esp+0xc],al
  120f4f:	89 4c 24 14          	mov    DWORD PTR [esp+0x14],ecx
  120f53:	50                   	push   eax
  120f54:	50                   	push   eax
  120f55:	6a 00                	push   0x0
  120f57:	68 1c 13 10 00       	push   0x10131c
  120f5c:	e8 7f 7f 01 00       	call   138ee0 <__ubsan_handle_type_mismatch>
  120f61:	83 c4 10             	add    esp,0x10
  120f64:	8b 4c 24 14          	mov    ecx,DWORD PTR [esp+0x14]
  120f68:	0f b6 44 24 0c       	movzx  eax,BYTE PTR [esp+0xc]
  120f6d:	e9 91 eb ff ff       	jmp    11fb03 <_ZN6system4core2io3out13format_stringEPcPKcS3_+0x433>
  120f72:	89 4c 24 0c          	mov    DWORD PTR [esp+0xc],ecx
  120f76:	50                   	push   eax
  120f77:	50                   	push   eax
  120f78:	6a 00                	push   0x0
  120f7a:	68 34 13 10 00       	push   0x101334
  120f7f:	e8 5c 7f 01 00       	call   138ee0 <__ubsan_handle_type_mismatch>
  120f84:	83 c4 10             	add    esp,0x10
  120f87:	8b 4c 24 0c          	mov    ecx,DWORD PTR [esp+0xc]
  120f8b:	e9 68 eb ff ff       	jmp    11faf8 <_ZN6system4core2io3out13format_stringEPcPKcS3_+0x428>
  120f90:	89 44 24 14          	mov    DWORD PTR [esp+0x14],eax
  120f94:	89 4c 24 18          	mov    DWORD PTR [esp+0x18],ecx
  120f98:	50                   	push   eax
  120f99:	50                   	push   eax
  120f9a:	6a 00                	push   0x0
  120f9c:	68 64 13 10 00       	push   0x101364
  120fa1:	e8 3a 7f 01 00       	call   138ee0 <__ubsan_handle_type_mismatch>
  120fa6:	83 c4 10             	add    esp,0x10
  120fa9:	8b 4c 24 18          	mov    ecx,DWORD PTR [esp+0x18]
  120fad:	8b 44 24 14          	mov    eax,DWORD PTR [esp+0x14]
  120fb1:	e9 17 eb ff ff       	jmp    11facd <_ZN6system4core2io3out13format_stringEPcPKcS3_+0x3fd>
  120fb6:	88 44 24 14          	mov    BYTE PTR [esp+0x14],al
  120fba:	89 4c 24 18          	mov    DWORD PTR [esp+0x18],ecx
  120fbe:	50                   	push   eax
  120fbf:	50                   	push   eax
  120fc0:	6a 00                	push   0x0
  120fc2:	68 fc 08 10 00       	push   0x1008fc
  120fc7:	e8 14 7f 01 00       	call   138ee0 <__ubsan_handle_type_mismatch>
  120fcc:	83 c4 10             	add    esp,0x10
  120fcf:	8b 4c 24 18          	mov    ecx,DWORD PTR [esp+0x18]
  120fd3:	0f b6 44 24 14       	movzx  eax,BYTE PTR [esp+0x14]
  120fd8:	e9 f2 f8 ff ff       	jmp    1208cf <_ZN6system4core2io3out13format_stringEPcPKcS3_+0x11ff>
  120fdd:	88 44 24 10          	mov    BYTE PTR [esp+0x10],al
  120fe1:	89 4c 24 14          	mov    DWORD PTR [esp+0x14],ecx
  120fe5:	50                   	push   eax
  120fe6:	50                   	push   eax
  120fe7:	6a 00                	push   0x0
  120fe9:	68 04 0d 10 00       	push   0x100d04
  120fee:	e8 ed 7e 01 00       	call   138ee0 <__ubsan_handle_type_mismatch>
  120ff3:	83 c4 10             	add    esp,0x10
  120ff6:	8b 4c 24 14          	mov    ecx,DWORD PTR [esp+0x14]
  120ffa:	0f b6 44 24 10       	movzx  eax,BYTE PTR [esp+0x10]
  120fff:	e9 46 f3 ff ff       	jmp    12034a <_ZN6system4core2io3out13format_stringEPcPKcS3_+0xc7a>
  121004:	88 54 24 0c          	mov    BYTE PTR [esp+0xc],dl
  121008:	89 4c 24 10          	mov    DWORD PTR [esp+0x10],ecx
  12100c:	52                   	push   edx
  12100d:	52                   	push   edx
  12100e:	6a 00                	push   0x0
  121010:	68 0c 0e 10 00       	push   0x100e0c
